(dp1
S'raining'
p2
I1
sS'writings'
p3
I2
sS'yellow'
p4
I6
sS'four'
p5
I7
sS'neckties'
p6
I8
sS'woods'
p7
I10
sS'railing'
p8
I70
sS'woody'
p9
I14
sS'comically'
p10
I16
sS'marching'
p11
I17
sS'canes'
p12
I20
sS'snowing'
p13
I22
sS'sunlit'
p14
I27
sS'deckered'
p15
I29
sS'shaving'
p16
I31
sS'sinking'
p17
I32
sS'deli'
p18
I37
sS'oceans'
p19
I39
sS'dell'
p20
I41
sS'leisurely'
p21
I44
sS'politician'
p22
I45
sS'stabbed'
p23
I46
sS'screaming'
p24
I47
sS'wooded'
p25
I51
sS'prize'
p26
I53
sS'wooden'
p27
I54
sS'satchel'
p28
I55
sS'frizbee'
p29
I56
sS'crotch'
p30
I58
sS'ornamental'
p31
I64
sS'charter'
p32
I65
sS'tired'
p33
I68
sS'snuggles'
p34
I69
sS'ornate'
p35
I12
sS'bacon'
p36
I71
sS'tires'
p37
I73
sS'elegant'
p38
I74
sS'second'
p39
I75
sS'turban'
p40
I6836
sS'tether'
p41
I77
sS'snuggled'
p42
I79
sS'blouse'
p43
I80
sS'sesame'
p44
I81
sS'boogie'
p45
I83
sS'fingers'
p46
I84
sS'numeral'
p47
I89
sS'hero'
p48
I95
sS'herb'
p49
I97
sS'here'
p50
I100
sS'herd'
p51
I101
sS'china'
p52
I102
sS'hers'
p53
I103
sS'substance'
p54
I106
sS'k'
I110
sS'tortoiseshell'
p55
I113
sS'menu'
p56
I2985
sS'talbe'
p57
I115
sS'special'
p58
I6886
sS'golden'
p59
I118
sS'projection'
p60
I120
sS'brought'
p61
I124
sS'unit'
p62
I130
sS'opponents'
p63
I131
sS'geisha'
p64
I132
sS'browse'
p65
I133
sS'kettles'
p66
I137
sS'music'
p67
I138
sS'passport'
p68
I140
sS'strike'
p69
I141
sS'paperwork'
p70
I146
sS'relax'
p71
I148
sS'successful'
p72
I149
sS'brings'
p73
I150
sS'glass'
p74
I152
sS'tying'
p75
I155
sS'midst'
p76
I157
sS'hold'
p77
I158
sS'locked'
p78
I160
sS'blade'
p79
I165
sS'locker'
p80
I169
sS'shelve'
p81
I172
sS'plunger'
p82
I173
sS'example'
p83
I175
sS'melons'
p84
I176
sS'wand'
p85
I179
sS'household'
p86
I181
sS'organized'
p87
I182
sS'stoves'
p88
I184
sS'buliding'
p89
I185
sS'caution'
p90
I186
sS'want'
p91
I187
sS'hog'
p92
I188
sS'travel'
p93
I192
sS'drying'
p94
I193
sS'feature'
p95
I194
sS'machine'
p96
I195
sS'how'
p97
I196
sS'hot'
p98
I197
sS'barstools'
p99
I198
sS'cheetah'
p100
I199
sS'gaming'
p101
I203
sS'beauty'
p102
I205
sS'funny'
p103
I206
sS'sippy'
p104
I207
sS'modest'
p105
I208
sS'types'
p106
I211
sS'colorfully'
p107
I213
sS'calves'
p108
I214
sS'attracts'
p109
I217
sS'cigarettes'
p110
I219
sS'keeps'
p111
I222
sS'wing'
p112
I225
sS'backdrop'
p113
I226
sS'wine'
p114
I227
sS'butcher'
p115
I4377
sS'diagonally'
p116
I233
sS'wrought'
p117
I236
sS'fir'
p118
I238
sS'fit'
p119
I240
sS'directional'
p120
I241
sS'plantains'
p121
I243
sS'fix'
p122
I244
sS'diffrent'
p123
I245
sS'bulding'
p124
I248
sS'hidden'
p125
I250
sS'fin'
p126
I251
sS'duvet'
p127
I254
sS'slate'
p128
I255
sS'slicing'
p129
I257
sS'slats'
p130
I259
sS'silver'
p131
I260
sS'headboard'
p132
I261
sS'grasslands'
p133
I263
sS'crops'
p134
I3591
sS'spotless'
p135
I265
sS'arrow'
p136
I268
sS'telescope'
p137
I276
sS'garment'
p138
I278
sS'spider'
p139
I279
sS'bowls'
p140
I280
sS'cathedral'
p141
I284
sS'whit'
p142
I285
sS'ring'
p143
I5109
sS'whip'
p144
I288
sS'rv'
p145
I289
sS'smirk'
p146
I291
sS'ha'
p147
I7419
sS'freeze'
p148
I7110
sS'mason'
p149
I292
sS'rd'
p150
I293
sS're'
p151
I294
sS'pumpkins'
p152
I304
sS'grapes'
p153
I306
sS'checked'
p154
I307
sS'knit'
p155
I309
sS'enormous'
p156
I312
sS'ate'
p157
I313
sS'exposing'
p158
I314
sS'shelves'
p159
I315
sS'atm'
p160
I317
sS'ups'
p161
I320
sS'takeout'
p162
I321
sS'musicians'
p163
I322
sS'kingdom'
p164
I5487
sS'cucumber'
p165
I325
sS'speeds'
p166
I328
sS'stripe'
p167
I5953
sS'playfully'
p168
I334
sS'veggie'
p169
I335
sS'shopped'
p170
I337
sS'wash'
p171
I338
sS'spinning'
p172
I339
sS'bitten'
p173
I346
sS'windmills'
p174
I347
sS'basketball'
p175
I348
sS'renovated'
p176
I349
sS'service'
p177
I350
sS'lego'
p178
I351
sS'returns'
p179
I5124
sS'needed'
p180
I355
sS'master'
p181
I356
sS'listed'
p182
I357
sS'blossoms'
p183
I358
sS'legs'
p184
I360
sS'listen'
p185
I362
sS'danish'
p186
I363
sS'cushions'
p187
I364
sS'lunges'
p188
I366
sS'lumber'
p189
I6755
sS'lavender'
p190
I367
sS'trek'
p191
I373
sS'tree'
p192
I376
sS'rusty'
p193
I377
sS'idly'
p194
I378
sS'project'
p195
I2478
sS'idle'
p196
I380
sS'runner'
p197
I387
sS'boston'
p198
I388
sS'paddles'
p199
I390
sS'shrubs'
p200
I393
sS'dozen'
p201
I398
sS'escalator'
p202
I399
sS'concrete'
p203
I400
sS'bleachers'
p204
I401
sS'soaked'
p205
I402
sS'eagerly'
p206
I404
sS'metallic'
p207
I405
sS'racers'
p208
I406
sS'causing'
p209
I408
sS'doors'
p210
I410
sS'grips'
p211
I412
sS'crossbones'
p212
I415
sS'zebras'
p213
I417
sS'object'
p214
I419
sS'looming'
p215
I421
sS'victoria'
p216
I422
sS'y'
I2641
sS'mouth'
p217
I425
sS'letter'
p218
I426
sS'entry'
p219
I427
sS'macbook'
p220
I429
sS'dummy'
p221
I431
sS'singer'
p222
I432
sS'cops'
p223
I5140
sS'grove'
p224
I436
sS'camp'
p225
I438
sS'camo'
p226
I443
sS'mating'
p227
I447
sS'came'
p228
I448
sS'saying'
p229
I449
sS'cooking'
p230
I450
sS'bomb'
p231
I451
sS'departing'
p232
I452
sS'padded'
p233
I456
sS'hazy'
p234
I459
sS'participate'
p235
I461
sS'recliner'
p236
I462
sS'reclines'
p237
I463
sS'lessons'
p238
I464
sS'nightstands'
p239
I465
sS'busy'
p240
I466
sS'layout'
p241
I467
sS'lazing'
p242
I468
sS'quaint'
p243
I469
sS'buss'
p244
I470
sS'bust'
p245
I472
sS'mens'
p246
I473
sS'theme'
p247
I475
sS'touched'
p248
I476
sS'rich'
p249
I477
sS'longhorn'
p250
I479
sS'rice'
p251
I481
sS'plate'
p252
I483
sS'honda'
p253
I487
sS'pocket'
p254
I490
sS'cushion'
p255
I493
sS'relish'
p256
I495
sS'spilling'
p257
I499
sS'nicely'
p258
I500
sS'tights'
p259
I501
sS'boarder'
p260
I502
sS'dipping'
p261
I503
sS'pretzel'
p262
I504
sS'patch'
p263
I505
sS'flanked'
p264
I510
sS'release'
p265
I511
sS'boarded'
p266
I512
sS'fair'
p267
I515
sS'pads'
p268
I519
sS'crouch'
p269
I520
sS'skulls'
p270
I521
sS'best'
p271
I522
sS'lots'
p272
I525
sS'sombrero'
p273
I526
sS'shirted'
p274
I529
sS'score'
p275
I534
sS'yogurt'
p276
I538
sS'cubby'
p277
I540
sS'pirate'
p278
I541
sS'apples'
p279
I5153
sS'preserve'
p280
I542
sS'claws'
p281
I543
sS'never'
p282
I545
sS'extend'
p283
I547
sS'nature'
p284
I548
sS'rolled'
p285
I549
sS'toilette'
p286
I552
sS'wheelbarrow'
p287
I555
sS'wth'
p288
I556
sS'roller'
p289
I559
sS'accident'
p290
I561
sS'country'
p291
I562
sS'heating'
p292
I563
sS'bodysuit'
p293
I565
sS'pita'
p294
I568
sS'pre'
p295
I570
sS'unbuttoned'
p296
I571
sS'sheepdog'
p297
I572
sS'munches'
p298
I575
sS'dorm'
p299
I577
sS'canyon'
p300
I578
sS'blending'
p301
I580
sS'humming'
p302
I582
sS'grazing'
p303
I583
sS'signals'
p304
I584
sS'lighthouse'
p305
I585
sS'watercraft'
p306
I586
sS'skatepark'
p307
I589
sS'chrome'
p308
I590
sS'fro'
p309
I592
sS'roofed'
p310
I595
sS'stadium'
p311
I596
sS'crows'
p312
I4653
sS'fry'
p313
I599
sS'kites'
p314
I2668
sS'dots'
p315
I603
sS'obese'
p316
I604
sS'life'
p317
I605
sS'crying'
p318
I607
sS'eastern'
p319
I609
sS'skiis'
p320
I611
sS'worker'
p321
I613
sS'racquets'
p322
I614
sS'strewn'
p323
I616
sS'child'
p324
I617
sS'worked'
p325
I618
sS'professionally'
p326
I622
sS'flooding'
p327
I630
sS'elaborate'
p328
I631
sS'skirts'
p329
I632
sS'played'
p330
I637
sS'player'
p331
I642
sS'eighteen'
p332
I643
sS'upscale'
p333
I644
sS'anticipating'
p334
I645
sS'violin'
p335
I647
sS'memorial'
p336
I4005
sS'credit'
p337
I655
sS'things'
p338
I656
sS'toaster'
p339
I658
sS'split'
p340
I662
sS'babies'
p341
I663
sS'toasted'
p342
I668
sS'european'
p343
I669
sS'fairly'
p344
I670
sS'boiled'
p345
I672
sS'tops'
p346
I674
sS'photographers'
p347
I677
sS'military'
p348
I680
sS'tuna'
p349
I4150
sS'cocoa'
p350
I7390
sS'crosstown'
p351
I688
sS'burgers'
p352
I691
sS'stillness'
p353
I692
sS'eagle'
p354
I5068
sS'corporate'
p355
I695
sS'plaque'
p356
I696
sS'capitol'
p357
I699
sS'sleeps'
p358
I700
sS'sleepy'
p359
I702
sS'shading'
p360
I705
sS'rushing'
p361
I707
sS'lasso'
p362
I708
sS'enters'
p363
I709
sS'campaign'
p364
I121
sS'had'
p365
I713
sS'hay'
p366
I714
sS'innocent'
p367
I715
sS'prison'
p368
I716
sS'duffel'
p369
I717
sS'has'
p370
I4414
sS'hat'
p371
I719
sS'casually'
p372
I721
sS'posed'
p373
I724
sS'possible'
p374
I725
sS'possibly'
p375
I726
sS'birth'
p376
I727
sS'clustered'
p377
I729
sS'shadow'
p378
I730
sS'unique'
p379
I731
sS'bushy'
p380
I732
sS'county'
p381
I2634
sS'articulated'
p382
I736
sS'seaside'
p383
I738
sS'pavement'
p384
I741
sS'steps'
p385
I742
sS'right'
p386
I746
sS'old'
p387
I747
sS'creek'
p388
I748
sS'crowd'
p389
I749
sS'people'
p390
I750
sS'crown'
p391
I751
sS'topping'
p392
I5189
sS'captive'
p393
I756
sS'billboard'
p394
I759
sS'ump'
p395
I4712
sS'for'
p396
I763
sS'bottom'
p397
I764
sS'fox'
p398
I767
sS'creative'
p399
I770
sS'fog'
p400
I772
sS'shaker'
p401
I776
sS'shakes'
p402
I777
sS'dental'
p403
I782
sS'binder'
p404
I784
sS'starring'
p405
I787
sS'losing'
p406
I788
sS'pliers'
p407
I789
sS'bowing'
p408
I790
sS'benches'
p409
I792
sS'visitors'
p410
I793
sS'dollars'
p411
I795
sS'citizens'
p412
I796
sS'o'
I797
sS'seaplane'
p413
I799
sS'slightly'
p414
I800
sS'flatbread'
p415
I802
sS'raised'
p416
I803
sS'facility'
p417
I805
sS'son'
p418
I810
sS'magazines'
p419
I813
sS'raises'
p420
I814
sS'wrap'
p421
I816
sS'sox'
p422
I817
sS'shoots'
p423
I818
sS'fabric'
p424
I821
sS'waits'
p425
I823
sS'panorama'
p426
I824
sS'support'
p427
I5094
sS'width'
p428
I827
sS'grasping'
p429
I828
sS'call'
p430
I5924
sS'avocados'
p431
I830
sS'overhand'
p432
I832
sS'launching'
p433
I833
sS'grooms'
p434
I834
sS'forming'
p435
I837
sS'tigers'
p436
I838
sS'manmade'
p437
I840
sS'peperoni'
p438
I846
sS'canopies'
p439
I847
sS'onlooker'
p440
I848
sS'paneled'
p441
I849
sS'inside'
p442
I5271
sS'devices'
p443
I856
sS'lays'
p444
I860
sS'servings'
p445
I862
sS'smashed'
p446
I863
sS'panels'
p447
I864
sS'passenger'
p448
I865
sS'juvenile'
p449
I866
sS'looms'
p450
I867
sS'tournament'
p451
I871
sS'bathrobe'
p452
I872
sS'females'
p453
I878
sS'posting'
p454
I882
sS'crutches'
p455
I883
sS'dotted'
p456
I885
sS'floor'
p457
I886
sS'crowns'
p458
I891
sS'flood'
p459
I892
sS'warms'
p460
I893
sS'role'
p461
I894
sS'smell'
p462
I897
sS'roll'
p463
I898
sS'greenery'
p464
I899
sS'models'
p465
I901
sS'transported'
p466
I905
sS'intent'
p467
I908
sS'smelling'
p468
I910
sS'rolling'
p469
I911
sS'congested'
p470
I913
sS'fastened'
p471
I915
sS'packets'
p472
I919
sS'time'
p473
I925
sS'push'
p474
I926
sS'banners'
p475
I927
sS'gown'
p476
I929
sS'childs'
p477
I930
sS'furry'
p478
I4506
sS'chain'
p479
I931
sS'burritos'
p480
I937
sS'skate'
p481
I938
sS'skiing'
p482
I940
sS'trashcan'
p483
I941
sS'chair'
p484
I942
sS'hole'
p485
I944
sS'venice'
p486
I945
sS'ware'
p487
I4112
sS'crates'
p488
I952
sS'mache'
p489
I953
sS'bicycles'
p490
I954
sS'connecting'
p491
I957
sS'fatigues'
p492
I960
sS'flatbed'
p493
I962
sS'choice'
p494
I964
sS'gloomy'
p495
I966
sS'stays'
p496
I967
sS'cooks'
p497
I971
sS'tricycle'
p498
I972
sS'tear'
p499
I973
sS'ollie'
p500
I976
sS'leave'
p501
I978
sS'subway'
p502
I981
sS'teal'
p503
I982
sS'team'
p504
I983
sS'loads'
p505
I984
sS'bulldozer'
p506
I988
sS'meadow'
p507
I989
sS'attic'
p508
I990
sS'sigh'
p509
I991
sS'sign'
p510
I993
sS'chopping'
p511
I994
sS'shirts'
p512
I995
sS'adorns'
p513
I997
sS'headset'
p514
I999
sS'current'
p515
I1001
sS'lazily'
p516
I1003
sS'falling'
p517
I1007
sS'crashing'
p518
I5231
sS'celebrates'
p519
I2942
sS'banister'
p520
I1014
sS'climbs'
p521
I1015
sS'address'
p522
I1020
sS'alone'
p523
I1021
sS'along'
p524
I1022
sS'passengers'
p525
I1027
sS'stair'
p526
I5235
sS'dusty'
p527
I1031
sS'crumbled'
p528
I1035
sS'studies'
p529
I1038
sS'carpets'
p530
I1040
sS'tasks'
p531
I1042
sS'love'
p532
I1043
sS'bloody'
p533
I1047
sS'fake'
p534
I1050
sS'traversing'
p535
I1051
sS'forefront'
p536
I1052
sS'sky'
p537
I7278
sS'crammed'
p538
I1054
sS'sunbathing'
p539
I1056
sS'handbags'
p540
I1057
sS'wicker'
p541
I1059
sS'angry'
p542
I1060
sS'tightly'
p543
I1063
sS'wondering'
p544
I1067
sS'films'
p545
I1068
sS'loving'
p546
I1071
sS'scratched'
p547
I1072
sS'claus'
p548
I1077
sS'tundra'
p549
I1079
sS'marbled'
p550
I1081
sS'everywhere'
p551
I1083
sS'scratches'
p552
I1084
sS'riders'
p553
I1086
sS'mascot'
p554
I1087
sS'logos'
p555
I1089
sS'grassing'
p556
I1094
sS'overloaded'
p557
I1095
sS'following'
p558
I1100
sS'pumpkin'
p559
I1102
sS'mirrors'
p560
I1106
sS'awesome'
p561
I1108
sS'mailboxes'
p562
I1110
sS'parachute'
p563
I1111
sS'locks'
p564
I1112
sS'graduation'
p565
I2750
sS'hides'
p566
I1114
sS'allowed'
p567
I1115
sS'listens'
p568
I1118
sS'winter'
p569
I1121
sS'buttered'
p570
I1122
sS'divided'
p571
I1123
sS'poking'
p572
I1125
sS'vancouver'
p573
I1127
sS'elephant'
p574
I1129
sS'divider'
p575
I1131
sS'laundry'
p576
I1137
sS'spot'
p577
I1142
sS'breasted'
p578
I1144
sS'date'
p579
I1147
sS'such'
p580
I1148
sS'dove'
p581
I1150
sS'lids'
p582
I1152
sS'surfing'
p583
I1154
sS'natural'
p584
I1155
sS'varieties'
p585
I1156
sS'wheelchair'
p586
I1158
sS'placemat'
p587
I1159
sS'st'
p588
I1160
sS'darkened'
p589
I1162
sS'mango'
p590
I1163
sS'so'
p591
I1164
sS'pulled'
p592
I1168
sS'kayaks'
p593
I1176
sS'flips'
p594
I1177
sS'damage'
p595
I1178
sS'decals'
p596
I1179
sS'course'
p597
I1180
sS'bucking'
p598
I1181
sS'solitary'
p599
I1185
sS'limbs'
p600
I1186
sS'yawning'
p601
I1187
sS'thumb'
p602
I1188
sS'accordion'
p603
I1189
sS'bagels'
p604
I1192
sS'torn'
p605
I1193
sS'attraction'
p606
I1195
sS'gatorade'
p607
I1196
sS'suspension'
p608
I1197
sS'apron'
p609
I1200
sS'matches'
p610
I1203
sS'records'
p611
I1204
sS'arriving'
p612
I1209
sS'twilight'
p613
I1211
sS'ketchup'
p614
I1212
sS'runners'
p615
I1213
sS'fisherman'
p616
I1219
sS'bowling'
p617
I1220
sS'quarter'
p618
I1222
sS'repaired'
p619
I1223
sS'turtle'
p620
I1224
sS'square'
p621
I1225
sS'retrieve'
p622
I1226
sS'receipt'
p623
I1228
sS'bovine'
p624
I1229
sS'entering'
p625
I1230
sS'salads'
p626
I1234
sS'flutes'
p627
I1235
sS'naked'
p628
I5265
sS'canvas'
p629
I1238
sS'container'
p630
I1240
sS'rounding'
p631
I1243
sS'blt'
p632
I1244
sS'contained'
p633
I1246
sS'internet'
p634
I1249
sS'bison'
p635
I1250
sS'squares'
p636
I1252
sS'bordering'
p637
I1253
sS'dodgers'
p638
I1254
sS'quite'
p639
I1259
sS'spooning'
p640
I1261
sS'bumps'
p641
I1262
sS'intensely'
p642
I1265
sS'training'
p643
I1268
sS'silhouetted'
p644
I1270
sS'jetliners'
p645
I1272
sS'backside'
p646
I1273
sS'tasting'
p647
I2774
sS'punk'
p648
I1275
sS'wrong'
p649
I1276
sS'ostrich'
p650
I1278
sS'chevy'
p651
I1279
sS'silhouettes'
p652
I1281
sS'aboard'
p653
I202
sS'parrot'
p654
I7149
sS'clause'
p655
I1290
sS'potter'
p656
I1291
sS'one'
p657
I1293
sS'spanish'
p658
I1297
sS'chubby'
p659
I1299
sS'potted'
p660
I1300
sS'open'
p661
I1301
sS'city'
p662
I1303
sS'boulevard'
p663
I1305
sS'occupy'
p664
I1307
sS'bite'
p665
I1309
sS'waist'
p666
I6976
sS'indicate'
p667
I1311
sS'teacher'
p668
I6266
sS'2'
I1312
sS'draft'
p669
I1313
sS'stuffed'
p670
I1314
sS'typing'
p671
I1315
sS'shoppers'
p672
I368
sS'bits'
p673
I1317
sS'williams'
p674
I1319
sS'floppy'
p675
I1322
sS'shawl'
p676
I1323
sS'flatscreen'
p677
I1324
sS'padding'
p678
I1325
sS'herds'
p679
I1327
sS'representing'
p680
I1330
sS'crossroads'
p681
I1339
sS'coats'
p682
I1340
sS'siding'
p683
I1341
sS'future'
p684
I1342
sS'trekking'
p685
I1344
sS'wandering'
p686
I1347
sS'youths'
p687
I1348
sS'san'
p688
I1354
sS'turned'
p689
I610
sS'locations'
p690
I1356
sS'alley'
p691
I1357
sS'sad'
p692
I1358
sS'say'
p693
I1361
sS'buried'
p694
I1362
sS'saw'
p695
I1364
sS'sat'
p696
I1365
sS'hawaiian'
p697
I1368
sS'baggage'
p698
I4127
sS'downwards'
p699
I1371
sS'aside'
p700
I1372
sS'zoo'
p701
I1374
sS'note'
p702
I1375
sS'take'
p703
I1377
sS'roadside'
p704
I1378
sS'wanting'
p705
I1380
sS'atop'
p706
I2791
sS'butterfly'
p707
I1386
sS'handing'
p708
I1388
sS'printer'
p709
I1389
sS'altered'
p710
I1390
sS'opposite'
p711
I1392
sS'microwaves'
p712
I1396
sS'buffet'
p713
I1397
sS'printed'
p714
I1398
sS'crochet'
p715
I1400
sS'knee'
p716
I1402
sS'inserted'
p717
I1404
sS'pages'
p718
I1405
sS'armrest'
p719
I1406
sS'lawn'
p720
I1407
sS'stilts'
p721
I1409
sS'montage'
p722
I1410
sS'average'
p723
I1411
sS'farmers'
p724
I5285
sS'drive'
p725
I1413
sS'sodas'
p726
I1414
sS'ways'
p727
I1416
sS'wind'
p728
I1417
sS'atlantic'
p729
I1420
sS'salt'
p730
I1421
sS'accented'
p731
I1422
sS'walking'
p732
I1424
sS'grilling'
p733
I1429
sS'peaches'
p734
I1432
sS'bright'
p735
I1434
sS'slot'
p736
I1442
sS'slow'
p737
I1444
sS'slop'
p738
I1445
sS'dinette'
p739
I1451
sS'going'
p740
I1452
sS'hockey'
p741
I1454
sS'equipped'
p742
I1455
sS'robe'
p743
I1456
sS'neath'
p744
I1458
sS'windowed'
p745
I1461
sS'tilting'
p746
I1463
sS'balconies'
p747
I1464
sS'wheelie'
p748
I1465
sS'outlet'
p749
I1467
sS'awaiting'
p750
I1469
sS'settings'
p751
I1473
sS'celebrate'
p752
I5259
sS'skyline'
p753
I1477
sS'priest'
p754
I1478
sS'snowsuit'
p755
I1480
sS'tortilla'
p756
I1483
sS'where'
p757
I1484
sS'orchids'
p758
I1485
sS'artistically'
p759
I1488
sS'horned'
p760
I1491
sS'dives'
p761
I1494
sS'jumped'
p762
I1498
sS'sites'
p763
I1501
sS'goers'
p764
I1502
sS'teacup'
p765
I1503
sS'navigates'
p766
I1506
sS'teens'
p767
I1507
sS'surfboards'
p768
I1509
sS'jumper'
p769
I1511
sS'cantaloupe'
p770
I1513
sS'checkered'
p771
I1514
sS'jobs'
p772
I1515
sS'mature'
p773
I1516
sS'vertical'
p774
I1517
sS'screen'
p775
I1518
sS'dome'
p776
I1520
sS'supermarket'
p777
I1521
sS'awards'
p778
I1523
sS'jets'
p779
I1524
sS'mans'
p780
I1527
sS'residence'
p781
I1530
sS'flipped'
p782
I1531
sS's'
I1532
sS'mane'
p783
I1534
sS'concentrates'
p784
I1535
sS'grooming'
p785
I1537
sS'expression'
p786
I1538
sS'backpack'
p787
I1539
sS"can't"
p788
I1540
sS'stream'
p789
I6715
sS'twin'
p790
I1546
sS'anti'
p791
I1547
sS'boar'
p792
I1550
sS'twig'
p793
I1552
sS'boat'
p794
I1553
sS'caring'
p795
I1555
sS'sprays'
p796
I1556
sS'comb'
p797
I5304
sS'teddy'
p798
I1559
sS'stretch'
p799
I1560
sS'west'
p800
I1561
sS'airliner'
p801
I1562
sS'vacation'
p802
I1563
sS'breath'
p803
I1565
sS'combined'
p804
I1567
sS'stripped'
p805
I1568
sS'reflective'
p806
I1570
sS'wants'
p807
I1573
sS'lanes'
p808
I1574
sS'centerpiece'
p809
I1578
sS'photos'
p810
I1579
sS'rooftops'
p811
I1580
sS'observe'
p812
I1581
sS'parasail'
p813
I1585
sS'resturant'
p814
I1592
sS'canoes'
p815
I1593
sS'squeezed'
p816
I1596
sS'spotlight'
p817
I1600
sS'shepard'
p818
I1603
sS'canoe'
p819
I1604
sS'brow'
p820
I1605
sS'appetizing'
p821
I1606
sS'engaged'
p822
I1607
sS'engages'
p823
I1614
sS'technology'
p824
I1615
sS'ivy'
p825
I1616
sS'dragging'
p826
I1619
sS'wiring'
p827
I1623
sS'coconuts'
p828
I1626
sS'wrappers'
p829
I1633
sS'barbed'
p830
I1635
sS'wires'
p831
I1636
sS'edges'
p832
I1643
sS'wired'
p833
I1644
sS'advertisement'
p834
I1645
sS'booster'
p835
I1649
sS'mohawk'
p836
I1651
sS'vacant'
p837
I1656
sS'customized'
p838
I1657
sS'trains'
p839
I1662
sS'grumpy'
p840
I1664
sS'summer'
p841
I1667
sS'neighborhood'
p842
I1988
sS'sprayed'
p843
I1668
sS'steamed'
p844
I1669
sS'being'
p845
I1670
sS'rest'
p846
I1672
sS'sprayer'
p847
I1675
sS'cilantro'
p848
I1680
sS'pillar'
p849
I745
sS'grounded'
p850
I1682
sS'instrument'
p851
I1687
sS'prominently'
p852
I1691
sS'skies'
p853
I1693
sS'skier'
p854
I1694
sS'crusty'
p855
I1696
sS'around'
p856
I1697
sS'crusts'
p857
I1702
sS'dark'
p858
I681
sS'swirl'
p859
I1705
sS'traffic'
p860
I1707
sS'vacuum'
p861
I1709
sS'world'
p862
I1710
sS'postal'
p863
I1712
sS'partaking'
p864
I1716
sS'tarp'
p865
I1718
sS'clad'
p866
I1720
sS'shutter'
p867
I1724
sS'clay'
p868
I1727
sS'claw'
p869
I1728
sS'stationary'
p870
I1730
sS'grouping'
p871
I1732
sS'seating'
p872
I1734
sS'fives'
p873
I1736
sS'pickled'
p874
I1741
sS'tvs'
p875
I1742
sS'scouts'
p876
I6016
sS'lobster'
p877
I1744
sS'diving'
p878
I1746
sS'pickles'
p879
I1747
sS'thinks'
p880
I1749
sS'tote'
p881
I1752
sS'tube'
p882
I1754
sS'nook'
p883
I1756
sS'tots'
p884
I1757
sS'exit'
p885
I1759
sS'tubs'
p886
I1762
sS'power'
p887
I1766
sS'luxurious'
p888
I1776
sS'slatted'
p889
I1777
sS'stone'
p890
I1778
sS'package'
p891
I1779
sS'pelicans'
p892
I1781
sS'favorite'
p893
I1782
sS'slender'
p894
I1784
sS'meal'
p895
I1785
sS'netbook'
p896
I1787
sS'act'
p897
I1789
sS'gesturing'
p898
I1792
sS'stony'
p899
I1793
sS'curling'
p900
I1796
sS'burning'
p901
I1797
sS'image'
p902
I1800
sS'legged'
p903
I1803
sS'moped'
p904
I1806
sS'wade'
p905
I1808
sS'racquet'
p906
I1810
sS'her'
p907
I1813
sS'bristles'
p908
I1815
sS'bookcases'
p909
I1817
sS'sloped'
p910
I1818
sS'lounging'
p911
I1819
sS'sealed'
p912
I1823
sS'series'
p913
I1824
sS'slopes'
p914
I1826
sS'bubble'
p915
I1827
sS'complete'
p916
I1831
sS'outcrop'
p917
I1833
sS'bundt'
p918
I1837
sS'mice'
p919
I1840
sS'with'
p920
I1842
sS'featuring'
p921
I5349
sS'buying'
p922
I1844
sS'handsome'
p923
I1845
sS'pull'
p924
I1847
sS'rush'
p925
I1848
sS'snowshoes'
p926
I1852
sS'dirty'
p927
I1855
sS'torso'
p928
I1858
sS'napping'
p929
I1859
sS'rust'
p930
I1860
sS'aa'
p931
I1862
sS'gone'
p932
I1863
sS'carves'
p933
I1864
sS'ad'
p934
I1865
sS'certain'
p935
I1869
sS'accents'
p936
I1870
sS'am'
p937
I1871
sS'al'
p938
I1872
sS'watches'
p939
I1873
sS'an'
p940
I1874
sS'tshirt'
p941
I1875
sS'carved'
p942
I1876
sS'walks'
p943
I1878
sS'watched'
p944
I1880
sS'tranquil'
p945
I1881
sS'coconut'
p946
I1885
sS'cream'
p947
I1886
sS'collie'
p948
I1887
sS'yoga'
p949
I1888
sS'graduate'
p950
I1894
sS'tight'
p951
I1895
sS'beverage'
p952
I2871
sS'puppy'
p953
I1898
sS'elvis'
p954
I5355
sS'motorcyclists'
p955
I1901
sS'beaks'
p956
I1906
sS'gifts'
p957
I1907
sS'herbs'
p958
I1908
sS'tricky'
p959
I1912
sS'tricks'
p960
I1917
sS'groom'
p961
I1918
sS'mask'
p962
I1919
sS'dyed'
p963
I1920
sS'mash'
p964
I1921
sS'mast'
p965
I1922
sS'mass'
p966
I1923
sS'original'
p967
I1927
sS'motocross'
p968
I1929
sS'birdcage'
p969
I1930
sS'ceramic'
p970
I1932
sS'debris'
p971
I1934
sS'tours'
p972
I1935
sS'careful'
p973
I7053
sS'hunting'
p974
I1942
sS'tv'
p975
I1943
sS'tp'
p976
I1945
sS'to'
p977
I1947
sS'tail'
p978
I1948
sS'chewing'
p979
I1950
sS'th'
p980
I1952
sS'dressing'
p981
I1953
sS'smile'
p982
I1954
sS'unfurnished'
p983
I1956
sS'roadway'
p984
I1957
sS'case'
p985
I5368
sS'returned'
p986
I1960
sS'condition'
p987
I1970
sS'cable'
p988
I1973
sS'laying'
p989
I1976
sS'joined'
p990
I1977
sS'large'
p991
I1979
sS'dinosaur'
p992
I1980
sS'prosciutto'
p993
I1981
sS'adjust'
p994
I1982
sS'harry'
p995
I1984
sS'small'
p996
I1985
sS'humongous'
p997
I1987
sS'past'
p998
I1991
sS'carriages'
p999
I1994
sS'displays'
p1000
I1995
sS'pass'
p1001
I1996
sS'situated'
p1002
I1998
sS'handicapped'
p1003
I2002
sS'contrails'
p1004
I2003
sS'clock'
p1005
I2006
sS'section'
p1006
I2007
sS'burgundy'
p1007
I2009
sS'nurse'
p1008
I2012
sS'contrast'
p1009
I2014
sS'revealing'
p1010
I2016
sS'full'
p1011
I2019
sS'hash'
p1012
I2020
sS'leaping'
p1013
I4345
sS'hours'
p1014
I2025
sS'mound'
p1015
I5378
sS'pics'
p1016
I2036
sS'hamster'
p1017
I2040
sS'social'
p1018
I4462
sS'action'
p1019
I2042
sS'via'
p1020
I2047
sS'depart'
p1021
I3678
sS'adidas'
p1022
I2050
sS'strolling'
p1023
I2052
sS'indoors'
p1024
I2057
sS'pulls'
p1025
I2058
sS'ridding'
p1026
I2062
sS'poodle'
p1027
I2066
sS'pears'
p1028
I2067
sS'pitching'
p1029
I2071
sS'6'
I2072
sS'blinders'
p1030
I2074
sS'refueling'
p1031
I2075
sS'more'
p1032
I2077
sS'teen'
p1033
I2078
sS'door'
p1034
I2081
sS'alcove'
p1035
I2084
sS'signpost'
p1036
I2085
sS'company'
p1037
I2086
sS'riverbank'
p1038
I2092
sS'keeping'
p1039
I2094
sS'klm'
p1040
I2098
sS'installing'
p1041
I2099
sS'mall'
p1042
I2102
sS'learn'
p1043
I2105
sS'knocked'
p1044
I2106
sS'seagull'
p1045
I2108
sS'male'
p1046
I2109
sS'pick'
p1047
I2041
sS'beautiful'
p1048
I2112
sS'gallop'
p1049
I2117
sS'campsite'
p1050
I2119
sS'bidet'
p1051
I2120
sS'neglected'
p1052
I2121
sS'fiving'
p1053
I2122
sS'autumn'
p1054
I2123
sS'gallon'
p1055
I2126
sS'dress'
p1056
I2127
sS'tapestry'
p1057
I2128
sS'information'
p1058
I2129
sS'respective'
p1059
I2130
sS'speedboat'
p1060
I2132
sS'glowing'
p1061
I2136
sS'freshly'
p1062
I2138
sS'hugs'
p1063
I2139
sS'browns'
p1064
I2140
sS'unattended'
p1065
I2141
sS'creature'
p1066
I2142
sS'plant'
p1067
I5043
sS'plans'
p1068
I5053
sS'countryside'
p1069
I2146
sS'plane'
p1070
I2148
sS'waves'
p1071
I2150
sS'backyard'
p1072
I2151
sS'authentic'
p1073
I2152
sS'plank'
p1074
I2153
sS'resemble'
p1075
I2157
sS'twisting'
p1076
I2160
sS'hauling'
p1077
I2161
sS'volleyball'
p1078
I2162
sS'wrench'
p1079
I2167
sS'asparagus'
p1080
I6630
sS'patio'
p1081
I2169
sS'pans'
p1082
I2171
sS'wooly'
p1083
I2172
sS'adorned'
p1084
I2173
sS'mexican'
p1085
I2174
sS'ith'
p1086
I2175
sS'locking'
p1087
I6777
sS'trade'
p1088
I5258
sS'paper'
p1089
I2179
sS'pane'
p1090
I2182
sS'signs'
p1091
I2183
sS'broadway'
p1092
I2184
sS'smiling'
p1093
I2185
sS'its'
p1094
I2187
sS'roots'
p1095
I2188
sS'licks'
p1096
I2192
sS'rapidly'
p1097
I2193
sS'laces'
p1098
I2199
sS'travelling'
p1099
I2202
sS'sauce'
p1100
I2203
sS'ally'
p1101
I2204
sS'gadget'
p1102
I2210
sS'frisbe'
p1103
I2212
sS'frisby'
p1104
I2214
sS'weeds'
p1105
I2216
sS'hotdogs'
p1106
I2217
sS'lettuce'
p1107
I2221
sS'always'
p1108
I2222
sS'swimsuit'
p1109
I2224
sS'piping'
p1110
I2226
sS'found'
p1111
I2228
sS'disorganized'
p1112
I2230
sS'lantern'
p1113
I2231
sS'brunette'
p1114
I2233
sS'england'
p1115
I2234
sS'upstairs'
p1116
I2235
sS'rowboats'
p1117
I2237
sS'bouquets'
p1118
I2245
sS'hanging'
p1119
I4110
sS'really'
p1120
I2249
sS'missed'
p1121
I2252
sS'scoops'
p1122
I2253
sS'misses'
p1123
I2257
sS'streaking'
p1124
I2258
sS'highway'
p1125
I2261
sS'calzone'
p1126
I2265
sS'porcelain'
p1127
I2266
sS'cockpit'
p1128
I5777
sS'outfitted'
p1129
I2272
sS'rises'
p1130
I2276
sS'plowing'
p1131
I2278
sS'pairs'
p1132
I3562
sS'similarly'
p1133
I2281
sS'w'
I2283
sS'bumper'
p1134
I2284
sS'castle'
p1135
I2286
sS'clump'
p1136
I2288
sS'major'
p1137
I2291
sS'fedora'
p1138
I6322
sS'number'
p1139
I2293
sS'feeder'
p1140
I2294
sS'gazes'
p1141
I2295
sS'ironing'
p1142
I2299
sS'heads'
p1143
I2303
sS'guest'
p1144
I2304
sS'jet'
p1145
I2305
sS'towel'
p1146
I5508
sS'fulled'
p1147
I2312
sS'saint'
p1148
I2313
sS'summit'
p1149
I1896
sS'warmly'
p1150
I2318
sS'interviewed'
p1151
I2323
sS'mural'
p1152
I2326
sS'rain'
p1153
I4464
sS'burrito'
p1154
I5441
sS'stairs'
p1155
I2330
sS'obama'
p1156
I2332
sS'kreme'
p1157
I2336
sS'drift'
p1158
I5661
sS'determined'
p1159
I2340
sS'emirates'
p1160
I2341
sS'taxis'
p1161
I2342
sS'refrigerators'
p1162
I2345
sS'mossy'
p1163
I2346
sS'guarding'
p1164
I2348
sS'graffiti'
p1165
I2349
sS'blond'
p1166
I2350
sS'sell'
p1167
I2354
sS'odd'
p1168
I2359
sS'self'
p1169
I2360
sS'also'
p1170
I2362
sS'knobs'
p1171
I2367
sS'brace'
p1172
I2368
sS'play'
p1173
I2372
sS'blackboard'
p1174
I2373
sS'swiftly'
p1175
I2375
sS'darth'
p1176
I2376
sS'plat'
p1177
I2377
sS'unused'
p1178
I2378
sS'dirtbike'
p1179
I2380
sS'plan'
p1180
I2381
sS'colliding'
p1181
I2385
sS'foyer'
p1182
I2387
sS'cover'
p1183
I2393
sS'barred'
p1184
I2394
sS'artistic'
p1185
I2396
sS'barren'
p1186
I2397
sS'barrel'
p1187
I2398
sS'bulletin'
p1188
I2400
sS'golf'
p1189
I2402
sS'cruiser'
p1190
I2403
sS'cruises'
p1191
I2404
sS'blended'
p1192
I2405
sS'vader'
p1193
I2410
sS'session'
p1194
I2412
sS'freight'
p1195
I2414
sS'blender'
p1196
I2418
sS'towed'
p1197
I5513
sS'wraps'
p1198
I2419
sS'keychain'
p1199
I2420
sS'streetlights'
p1200
I2421
sS'writes'
p1201
I2423
sS'clothesline'
p1202
I2425
sS'gooey'
p1203
I2426
sS'columns'
p1204
I2430
sS'giants'
p1205
I2431
sS'begins'
p1206
I2432
sS'beams'
p1207
I2434
sS'sunny'
p1208
I2436
sS'preparing'
p1209
I2441
sS'closely'
p1210
I2442
sS'compass'
p1211
I2443
sS'banner'
p1212
I2445
sS'crt'
p1213
I2449
sS'paddling'
p1214
I2451
sS'tabby'
p1215
I2452
sS'seperated'
p1216
I2453
sS'caramel'
p1217
I2455
sS'tanker'
p1218
I2459
sS'approaching'
p1219
I2461
sS'set'
p1220
I2464
sS'sex'
p1221
I2469
sS'see'
p1222
I2470
sS'sea'
p1223
I2472
sS'sips'
p1224
I2473
sS'origami'
p1225
I2475
sS'outward'
p1226
I2476
sS'analog'
p1227
I2477
sS'knees'
p1228
I4671
sS'movie'
p1229
I2481
sS'currently'
p1230
I2483
sS'kneeling'
p1231
I5467
sS'pickup'
p1232
I2487
sS'crosswalk'
p1233
I2489
sS'kneel'
p1234
I2491
sS'prepped'
p1235
I2492
sS'available'
p1236
I2493
sS'enclosures'
p1237
I2494
sS'untouched'
p1238
I2496
sS'death'
p1239
I5471
sS'last'
p1240
I2504
sS'barely'
p1241
I2508
sS'connection'
p1242
I2510
sS'whole'
p1243
I2512
sS'lanyard'
p1244
I2513
sS'patty'
p1245
I2514
sS'load'
p1246
I2515
sS'loaf'
p1247
I2516
sS'pendulum'
p1248
I2517
sS'bell'
p1249
I2518
sS'forklift'
p1250
I2520
sS'community'
p1251
I2522
sS'dimensional'
p1252
I2524
sS'adjoining'
p1253
I2527
sS'frosty'
p1254
I2528
sS'scottish'
p1255
I2529
sS'belt'
p1256
I2533
sS'airfield'
p1257
I5480
sS'devil'
p1258
I2536
sS'filth'
p1259
I2537
sS'conveyor'
p1260
I2539
sS'hitting'
p1261
I2542
sS'extravagant'
p1262
I2544
sS'resting'
p1263
I2548
sS'squirrel'
p1264
I2551
sS'fire'
p1265
I2554
sS"what's"
p1266
I2555
sS'wheeler'
p1267
I2556
sS'racer'
p1268
I2559
sS'engage'
p1269
I2560
sS'sleeves'
p1270
I2561
sS'yachts'
p1271
I2562
sS'towns'
p1272
I2564
sS'wheeled'
p1273
I2565
sS'mlb'
p1274
I2566
sS'presses'
p1275
I2567
sS'handling'
p1276
I2568
sS'caged'
p1277
I2573
sS'straight'
p1278
I2574
sS'tip'
p1279
I4688
sS'knacks'
p1280
I2577
sS'admire'
p1281
I2578
sS'pressed'
p1282
I2581
sS'leaning'
p1283
I2582
sS'kissing'
p1284
I2584
sS'robin'
p1285
I2585
sS'cages'
p1286
I2586
sS'secluded'
p1287
I2588
sS'pound'
p1288
I2589
sS'ducky'
p1289
I2590
sS'backing'
p1290
I2592
sS'calculator'
p1291
I2593
sS'ducks'
p1292
I2594
sS'triple'
p1293
I2597
sS'beautifully'
p1294
I2598
sS'chase'
p1295
I2602
sS'cuisine'
p1296
I2603
sS'decor'
p1297
I2604
sS'elevated'
p1298
I231
sS'shorter'
p1299
I2607
sS'read'
p1300
I5491
sS'pecking'
p1301
I2610
sS'knitting'
p1302
I2614
sS'flooded'
p1303
I2616
sS'cigar'
p1304
I2617
sS'alert'
p1305
I2619
sS'viewing'
p1306
I2620
sS'levels'
p1307
I2621
sS'leaps'
p1308
I2622
sS'stack'
p1309
I2626
sS'infamous'
p1310
I2627
sS'canned'
p1311
I2630
sS'picks'
p1312
I2635
sS'person'
p1313
I2636
sS'de'
p1314
I2637
sS'titled'
p1315
I2644
sS'cheddar'
p1316
I2649
sS'stunt'
p1317
I5502
sS'doily'
p1318
I2653
sS'helmeted'
p1319
I5219
sS'drizzled'
p1320
I2657
sS'goblet'
p1321
I2659
sS'hued'
p1322
I2660
sS'advertisements'
p1323
I2662
sS'fitting'
p1324
I2663
sS'pillars'
p1325
I2664
sS'eager'
p1326
I2665
sS'grapefruit'
p1327
I2666
sS'parents'
p1328
I2667
sS'location'
p1329
I602
sS'sydney'
p1330
I2669
sS'furniture'
p1331
I5506
sS'surprised'
p1332
I2674
sS'australia'
p1333
I2676
sS'emergency'
p1334
I2677
sS'couple'
p1335
I3909
sS'private'
p1336
I2681
sS'falcon'
p1337
I2682
sS'flannel'
p1338
I2684
sS'sorting'
p1339
I2686
sS'd'
I2687
sS'marquee'
p1340
I2689
sS'underway'
p1341
I5569
sS'individuals'
p1342
I2694
sS'scape'
p1343
I2695
sS'stylish'
p1344
I2696
sS'spins'
p1345
I2698
sS'names'
p1346
I2699
sS'spring'
p1347
I2704
sS'sundaes'
p1348
I2705
sS'greeting'
p1349
I5514
sS'oval'
p1350
I2708
sS'palm'
p1351
I2709
sS'sight'
p1352
I2710
sS'curious'
p1353
I2712
sS'pale'
p1354
I2714
sS'stables'
p1355
I2720
sS'novelty'
p1356
I2722
sS'tye'
p1357
I2727
sS'temple'
p1358
I2728
sS't'
I5517
sS'be'
p1359
I2730
sS'bi'
p1360
I2735
sS'nowhere'
p1361
I2737
sS'santa'
p1362
I2738
sS'obscured'
p1363
I2741
sS'by'
p1364
I2742
sS'wildlife'
p1365
I2745
sS'anything'
p1366
I2748
sS'whiteboard'
p1367
I2749
sS'frisbie'
p1368
I2753
sS'wrinkled'
p1369
I2754
sS'canning'
p1370
I2755
sS'repair'
p1371
I2758
sS'garbage'
p1372
I2759
sS'into'
p1373
I2761
sS'appropriate'
p1374
I2764
sS'sightseeing'
p1375
I2771
sS'harnessed'
p1376
I2773
sS'retrieving'
p1377
I1274
sS'spending'
p1378
I2775
sS'apartments'
p1379
I5523
sS'sock'
p1380
I2778
sS'custom'
p1381
I2779
sS'harnesses'
p1382
I2780
sS'suit'
p1383
I2783
sS'opens'
p1384
I2787
sS'inches'
p1385
I2789
sS'poster'
p1386
I2790
sS'relaxed'
p1387
I1383
sS'pastor'
p1388
I2793
sS'link'
p1389
I2795
sS'competition'
p1390
I5524
sS'line'
p1391
I2798
sS'pain'
p1392
I6102
sS'relaxes'
p1393
I2800
sS'posted'
p1394
I2801
sS'up'
p1395
I2804
sS'us'
p1396
I2805
sS'paired'
p1397
I2807
sS'un'
p1398
I2808
sS'uk'
p1399
I2810
sS'faded'
p1400
I2811
sS'alarm'
p1401
I2813
sS'aerial'
p1402
I2815
sS'labrador'
p1403
I2816
sS'm'
I2818
sS'pepperonis'
p1404
I2820
sS'chat'
p1405
I2825
sS'sunken'
p1406
I2833
sS'fixing'
p1407
I2834
sS'definitely'
p1408
I2837
sS'actors'
p1409
I2838
sS'parakeet'
p1410
I2839
sS'scraps'
p1411
I2840
sS'tech'
p1412
I2841
sS'sails'
p1413
I2843
sS'elements'
p1414
I2846
sS'scrub'
p1415
I2847
sS'sided'
p1416
I2848
sS'cobblestone'
p1417
I2852
sS'sides'
p1418
I4662
sS'ago'
p1419
I2857
sS'lane'
p1420
I2858
sS'land'
p1421
I2859
sS'fighter'
p1422
I2860
sS'pedestrians'
p1423
I2864
sS'age'
p1424
I2865
sS'holes'
p1425
I2867
sS'walked'
p1426
I2868
sS'satellite'
p1427
I4460
sS'cookware'
p1428
I4552
sS'dot'
p1429
I5893
sS'walker'
p1430
I2874
sS'fresh'
p1431
I2875
sS'hello'
p1432
I2876
sS'amish'
p1433
I2877
sS'partial'
p1434
I2878
sS'squats'
p1435
I2879
sS'scratch'
p1436
I2880
sS'splashing'
p1437
I2881
sS'chillin'
p1438
I2886
sS'windowsill'
p1439
I2889
sS'glows'
p1440
I2890
sS'concerned'
p1441
I2892
sS'young'
p1442
I2893
sS'hipster'
p1443
I5539
sS'indicating'
p1444
I2900
sS'stocked'
p1445
I2903
sS'garden'
p1446
I2905
sS'panting'
p1447
I2908
sS'manipulated'
p1448
I2911
sS'llama'
p1449
I2914
sS'mixing'
p1450
I2915
sS'practicing'
p1451
I2916
sS'decorating'
p1452
I2917
sS'forks'
p1453
I5541
sS'shetland'
p1454
I2920
sS'harbor'
p1455
I2924
sS'having'
p1456
I2926
sS'try'
p1457
I2927
sS'race'
p1458
I2929
sS'rack'
p1459
I2932
sS'video'
p1460
I2938
sS'enclosed'
p1461
I2939
sS'assembly'
p1462
I5544
sS'pajamas'
p1463
I2941
sS'sauerkraut'
p1464
I2943
sS'apparatus'
p1465
I2944
sS'indian'
p1466
I2952
sS'twins'
p1467
I2953
sS'flowing'
p1468
I2954
sS'bird'
p1469
I2956
sS'waling'
p1470
I2957
sS'scenery'
p1471
I2959
sS'led'
p1472
I2960
sS'leg'
p1473
I2961
sS'lei'
p1474
I2962
sS'gathered'
p1475
I2963
sS'punch'
p1476
I2964
sS'delivering'
p1477
I2965
sS'let'
p1478
I2968
sS'backsides'
p1479
I2972
sS'fifteen'
p1480
I2974
sS'great'
p1481
I2976
sS'casing'
p1482
I2977
sS'receive'
p1483
I2979
sS'involved'
p1484
I2980
sS'casino'
p1485
I2982
sS'sweaters'
p1486
I6175
sS'derby'
p1487
I5415
sS'popcorn'
p1488
I2986
sS'makes'
p1489
I2988
sS'maker'
p1490
I2989
sS'nibbling'
p1491
I2996
sS'tools'
p1492
I2997
sS'standing'
p1493
I2999
sS'zip'
p1494
I3002
sS'chocolates'
p1495
I3003
sS'bush'
p1496
I3004
sS'next'
p1497
I3005
sS'eleven'
p1498
I3006
sS'duplicate'
p1499
I3007
sS'pencil'
p1500
I3009
sS'on'
p1501
I5558
sS'carrying'
p1502
I3016
sS'labelled'
p1503
I3017
sS'rubbish'
p1504
I3018
sS'baby'
p1505
I3020
sS'pieces'
p1506
I3051
sS'casserole'
p1507
I3023
sS'charity'
p1508
I3024
sS'customer'
p1509
I3025
sS'balls'
p1510
I3026
sS'animals'
p1511
I3027
sS'this'
p1512
I3029
sS'athlete'
p1513
I3030
sS'pour'
p1514
I3033
sS'thin'
p1515
I3035
sS'drill'
p1516
I3036
sS'wedge'
p1517
I3040
sS'slid'
p1518
I3041
sS'bent'
p1519
I3042
sS'reeds'
p1520
I3043
sS'process'
p1521
I3045
sS'lock'
p1522
I3046
sS'billboards'
p1523
I3047
sS'slim'
p1524
I3048
sS'rode'
p1525
I3049
sS'promotional'
p1526
I3021
sS'high'
p1527
I3052
sS'nears'
p1528
I3055
sS'bend'
p1529
I3056
sS'slip'
p1530
I3057
sS'blvd'
p1531
I3058
sS'rods'
p1532
I3060
sS'paws'
p1533
I3061
sS'trumpet'
p1534
I3062
sS'docking'
p1535
I3066
sS'wares'
p1536
I3069
sS'lunchbox'
p1537
I3072
sS'animal'
p1538
I3076
sS'native'
p1539
I3078
sS'establishment'
p1540
I3079
sS'contraption'
p1541
I3081
sS'yellowish'
p1542
I3082
sS'blocks'
p1543
I3085
sS'halter'
p1544
I3086
sS'wallpaper'
p1545
I3198
sS'tied'
p1546
I3089
sS'hitched'
p1547
I3090
sS'notebook'
p1548
I3218
sS'demonstrating'
p1549
I3092
sS'fits'
p1550
I3232
sS'ties'
p1551
I3094
sS'cabbage'
p1552
I3095
sS'coast'
p1553
I489
sS'racks'
p1554
I3098
sS'tomato'
p1555
I3099
sS'counter'
p1556
I3101
sS'robot'
p1557
I3103
sS'allow'
p1558
I3108
sS'classy'
p1559
I3109
sS'antelope'
p1560
I3113
sS'boxing'
p1561
I3114
sS'move'
p1562
I3117
sS'spatula'
p1563
I3120
sS'artichoke'
p1564
I3122
sS'perfect'
p1565
I3125
sS'dishing'
p1566
I7095
sS'decal'
p1567
I3131
sS'attachment'
p1568
I3075
sS'designs'
p1569
I3137
sS'knick'
p1570
I3138
sS'outlined'
p1571
I3141
sS'dock'
p1572
I3144
sS'snake'
p1573
I3146
sS'kiss'
p1574
I3147
sS'cage'
p1575
I3148
sS'transparent'
p1576
I3149
sS'greens'
p1577
I3154
sS'glassed'
p1578
I3155
sS'scenic'
p1579
I3156
sS'sniffing'
p1580
I3159
sS'accompanied'
p1581
I3162
sS'beneath'
p1582
I3163
sS'stock'
p1583
I3164
sS'glasses'
p1584
I3167
sS'watery'
p1585
I3168
sS'tents'
p1586
I3171
sS'bump'
p1587
I3172
sS'books'
p1588
I3174
sS'bay'
p1589
I3176
sS'wander'
p1590
I3177
sS'bunched'
p1591
I3179
sS'valve'
p1592
I3185
sS'bunches'
p1593
I3189
sS'oblong'
p1594
I3195
sS'shut'
p1595
I3197
sS'await'
p1596
I3088
sS'yawns'
p1597
I3199
sS'ban'
p1598
I2429
sS'graze'
p1599
I3202
sS'luggages'
p1600
I3205
sS'steering'
p1601
I3206
sS'scary'
p1602
I3208
sS'could'
p1603
I3212
sS'chilly'
p1604
I3216
sS'length'
p1605
I3217
sS'pigs'
p1606
I3091
sS'pudding'
p1607
I3219
sS'motorbikes'
p1608
I3222
sS'scarf'
p1609
I3223
sS'blown'
p1610
I3224
sS'yells'
p1611
I3228
sS'scene'
p1612
I4057
sS'jesus'
p1613
I3231
sS'tier'
p1614
I3093
sS'spaghetti'
p1615
I3233
sS'owner'
p1616
I3236
sS'blows'
p1617
I3238
sS'hawk'
p1618
I3096
sS'los'
p1619
I5594
sS'festival'
p1620
I3246
sS'detailing'
p1621
I3249
sS'system'
p1622
I3250
sS'decorations'
p1623
I3252
sS'graffitied'
p1624
I3254
sS'low'
p1625
I5596
sS'enforcement'
p1626
I3257
sS'gummy'
p1627
I3258
sS'stomach'
p1628
I3259
sS'stars'
p1629
I5597
sS'shorts'
p1630
I3261
sS'unoccupied'
p1631
I3264
sS'rickshaw'
p1632
I3267
sS'manhole'
p1633
I4260
sS'steel'
p1634
I3270
sS'splayed'
p1635
I3275
sS'steet'
p1636
I3278
sS'steep'
p1637
I3280
sS'steer'
p1638
I3281
sS'collecting'
p1639
I3283
sS'viewer'
p1640
I3284
sS'gently'
p1641
I3286
sS'spelled'
p1642
I3287
sS'gentle'
p1643
I3290
sS'clearly'
p1644
I3296
sS'viewed'
p1645
I3297
sS'illuminated'
p1646
I5605
sS'necessities'
p1647
I3299
sS'mountainous'
p1648
I4466
sS'livingroom'
p1649
I3301
sS'dishes'
p1650
I3302
sS'studying'
p1651
I3303
sS'mills'
p1652
I3305
sS'waffles'
p1653
I3308
sS'demolished'
p1654
I3310
sS'astride'
p1655
I3311
sS'ashore'
p1656
I3312
sS'korean'
p1657
I3315
sS'scooping'
p1658
I3317
sS'soap'
p1659
I3318
sS'soar'
p1660
I3319
sS'petals'
p1661
I3323
sS'device'
p1662
I3326
sS'vultures'
p1663
I3327
sS'medal'
p1664
I3328
sS'socializing'
p1665
I3329
sS'thanksgiving'
p1666
I3333
sS'face'
p1667
I3334
sS'mustache'
p1668
I3335
sS'mechanical'
p1669
I3337
sS'painting'
p1670
I3340
sS'atmosphere'
p1671
I3342
sS'rings'
p1672
I3346
sS'woolly'
p1673
I3347
sS'bring'
p1674
I3349
sS'biker'
p1675
I3350
sS'bikes'
p1676
I3351
sS'greenhouse'
p1677
I3352
sS'bedroom'
p1678
I3353
sS'rough'
p1679
I3354
sS'pause'
p1680
I3357
sS'planter'
p1681
I3359
sS'jar'
p1682
I3360
sS'should'
p1683
I3363
sS'terminal'
p1684
I4861
sS'jam'
p1685
I4866
sS'tape'
p1686
I3366
sS'riding'
p1687
I3368
sS'hope'
p1688
I3371
sS'handle'
p1689
I3373
sS'means'
p1690
I3374
sS'lucky'
p1691
I3378
sS'styrofoam'
p1692
I3385
sS'hoses'
p1693
I3388
sS'peel'
p1694
I4805
sS'stuff'
p1695
I3392
sS'streamlined'
p1696
I3393
sS'handstand'
p1697
I3396
sS'directs'
p1698
I3397
sS'bucket'
p1699
I5621
sS'frame'
p1700
I3400
sS'packet'
p1701
I3403
sS'slanted'
p1702
I3406
sS'skateboarding'
p1703
I3407
sS'packed'
p1704
I3410
sS'wire'
p1705
I3413
sS'interacting'
p1706
I3415
sS'amtrak'
p1707
I3416
sS'squinting'
p1708
I6949
sS'krispy'
p1709
I5983
sS'cloudless'
p1710
I3422
sS'ends'
p1711
I3425
sS'butts'
p1712
I3430
sS'courtyard'
p1713
I3431
sS'staring'
p1714
I3433
sS'drum'
p1715
I3434
sS'ramp'
p1716
I3437
sS'rams'
p1717
I3439
sS'etc'
p1718
I3440
sS'doorway'
p1719
I5404
sS'streams'
p1720
I3502
sS'puff'
p1721
I5436
sS'co'
p1722
I3451
sS'cd'
p1723
I3455
sS'arugula'
p1724
I3456
sS'crafted'
p1725
I3457
sS'oakland'
p1726
I3459
sS'powered'
p1727
I3463
sS'gondola'
p1728
I3464
sS'poured'
p1729
I3466
sS'chalkboard'
p1730
I3468
sS'feather'
p1731
I3470
sS'waste'
p1732
I3471
sS'commuter'
p1733
I3475
sS'mannequin'
p1734
I3482
sS'graphics'
p1735
I3484
sS'toasting'
p1736
I3486
sS'runway'
p1737
I3494
sS'grinning'
p1738
I3497
sS'parsley'
p1739
I3498
sS'ultra'
p1740
I3499
sS'stuffing'
p1741
I3501
sS'ripe'
p1742
I3503
sS'lush'
p1743
I3506
sS'site'
p1744
I3507
sS'hardware'
p1745
I3508
sS'vw'
p1746
I3510
sS'sits'
p1747
I3514
sS'tattoo'
p1748
I3516
sS'skateboarders'
p1749
I5636
sS'highlighted'
p1750
I3520
sS'digging'
p1751
I3525
sS'glaring'
p1752
I3529
sS'ball'
p1753
I3532
sS'dusk'
p1754
I3533
sS'bale'
p1755
I3534
sS'bald'
p1756
I3535
sS'upon'
p1757
I3536
sS'surfboarding'
p1758
I3538
sS'robotic'
p1759
I3540
sS'dust'
p1760
I3541
sS'overalls'
p1761
I3543
sS'afghan'
p1762
I3544
sS'colts'
p1763
I3545
sS'broccoli'
p1764
I3546
sS'mosaic'
p1765
I3547
sS'ofa'
p1766
I3549
sS'off'
p1767
I3550
sS'overcast'
p1768
I3552
sS'patterns'
p1769
I3554
sS'fashionable'
p1770
I1369
sS'350'
p1771
I3556
sS'barricades'
p1772
I6800
sS'audio'
p1773
I3559
sS'drawing'
p1774
I3560
sS'bananas'
p1775
I3564
sS'less'
p1776
I3565
sS'gulls'
p1777
I3569
sS'clocks'
p1778
I3571
sS'rooms'
p1779
I3572
sS'paul'
p1780
I3575
sS'glue'
p1781
I3576
sS'unplugged'
p1782
I3577
sS'web'
p1783
I3579
sS'residential'
p1784
I3582
sS'cosmetics'
p1785
I3588
sS'combing'
p1786
I3589
sS'crack'
p1787
I3590
sS'government'
p1788
I3593
sS'checking'
p1789
I3594
sS'haul'
p1790
I3595
sS'five'
p1791
I3597
sS'desk'
p1792
I3599
sS'height'
p1793
I576
sS'pier'
p1794
I3601
sS'pies'
p1795
I3602
sS'crisp'
p1796
I3606
sS'onion'
p1797
I3608
sS'chairs'
p1798
I3609
sS'garage'
p1799
I3612
sS'become'
p1800
I3614
sS'habitat'
p1801
I3622
sS'polar'
p1802
I5655
sS'daylight'
p1803
I3628
sS'almonds'
p1804
I3629
sS'choosing'
p1805
I3630
sS'flush'
p1806
I3631
sS'blonde'
p1807
I3634
sS'transport'
p1808
I3635
sS'hipsters'
p1809
I3636
sS'bedding'
p1810
I3639
sS'separate'
p1811
I5658
sS'fedex'
p1812
I3641
sS'does'
p1813
I3643
sS'saucepan'
p1814
I3644
sS'blurry'
p1815
I3648
sS'stairway'
p1816
I3649
sS'blowing'
p1817
I3651
sS'pomeranian'
p1818
I3652
sS'selecting'
p1819
I3654
sS'cordless'
p1820
I6664
sS'hiding'
p1821
I3661
sS'sister'
p1822
I3663
sS'podium'
p1823
I5664
sS'angeles'
p1824
I3669
sS'union'
p1825
I3670
sS'seeds'
p1826
I3671
sS'concession'
p1827
I3674
sS'swimming'
p1828
I3675
sS'letters'
p1829
I3676
sS'mets'
p1830
I3679
sS'snuggling'
p1831
I3684
sS'scones'
p1832
I3686
sS'erect'
p1833
I3687
sS'roads'
p1834
I3689
sS'swimmers'
p1835
I3690
sS'brownies'
p1836
I3694
sS'housing'
p1837
I3697
sS'spots'
p1838
I3700
sS'doing'
p1839
I3702
sS'much'
p1840
I3703
sS'toothpaste'
p1841
I3704
sS'function'
p1842
I3705
sS'delivery'
p1843
I3714
sS'lowered'
p1844
I3716
sS'grate'
p1845
I3718
sS'delivers'
p1846
I3719
sS'leashed'
p1847
I3725
sS'tossed'
p1848
I3726
sS'places'
p1849
I3727
sS'chained'
p1850
I3728
sS'official'
p1851
I3731
sS'smooth'
p1852
I3732
sS'excitement'
p1853
I3735
sS'placed'
p1854
I3736
sS'tosses'
p1855
I3737
sS'leashes'
p1856
I3738
sS'monument'
p1857
I3739
sS'bearing'
p1858
I3744
sS'irish'
p1859
I3745
sS'int'
p1860
I3748
sS'rubble'
p1861
I3751
sS'inn'
p1862
I3754
sS'replica'
p1863
I3755
sS'ink'
p1864
I3757
sS'ina'
p1865
I3760
sS'compared'
p1866
I3762
sS'variety'
p1867
I3763
sS'details'
p1868
I3770
sS'ponytail'
p1869
I3773
sS'francisco'
p1870
I3775
sS'footprints'
p1871
I3776
sS'veil'
p1872
I3779
sS'vein'
p1873
I3780
sS'exposure'
p1874
I3781
sS'ghost'
p1875
I3782
sS'batting'
p1876
I5175
sS'lift'
p1877
I3789
sS'compete'
p1878
I3790
sS'rural'
p1879
I3791
sS'buoy'
p1880
I3793
sS'magnetic'
p1881
I30
sS'all'
p1882
I5687
sS'nursery'
p1883
I3798
sS'mansion'
p1884
I3800
sS'chili'
p1885
I3803
sS'waring'
p1886
I3808
sS'bike'
p1887
I3812
sS'booties'
p1888
I3813
sS'oriental'
p1889
I3188
sS'wreath'
p1890
I5692
sS'blanket'
p1891
I3822
sS'closeup'
p1892
I3825
sS'wagons'
p1893
I3828
sS'tagging'
p1894
I3831
sS'tickets'
p1895
I3833
sS'whisk'
p1896
I3836
sS'urinating'
p1897
I3843
sS'suite'
p1898
I6610
sS'triumph'
p1899
I3847
sS'chew'
p1900
I3849
sS'paperback'
p1901
I3850
sS'phones'
p1902
I3852
sS'horn'
p1903
I3857
sS'chef'
p1904
I3858
sS'lacy'
p1905
I5702
sS'planters'
p1906
I3863
sS'machines'
p1907
I3864
sS'lizard'
p1908
I3870
sS'above'
p1909
I3874
sS'toll'
p1910
I3875
sS'zoomed'
p1911
I3876
sS'ceilings'
p1912
I3877
sS'consisting'
p1913
I2311
sS'counters'
p1914
I3880
sS'simultaneously'
p1915
I3881
sS'sinks'
p1916
I3882
sS'festive'
p1917
I3883
sS'wrapping'
p1918
I3884
sS'bookcase'
p1919
I566
sS'textured'
p1920
I3890
sS'celebration'
p1921
I3894
sS'watermelons'
p1922
I3895
sS'toped'
p1923
I3896
sS'daughter'
p1924
I3897
sS'items'
p1925
I3900
sS'employees'
p1926
I3901
sS'smoke'
p1927
I3907
sS'browsing'
p1928
I3908
sS'walkie'
p1929
I3910
sS'infield'
p1930
I3916
sS'angrily'
p1931
I3917
sS'highly'
p1932
I3918
sS'lavatory'
p1933
I3920
sS'atrium'
p1934
I3922
sS'bra'
p1935
I3923
sS'plot'
p1936
I3925
sS'plow'
p1937
I3926
sS'alligator'
p1938
I3930
sS'sweater'
p1939
I3931
sS'coins'
p1940
I3932
sS'bundles'
p1941
I3933
sS'knoll'
p1942
I3936
sS'bundled'
p1943
I3937
sS'renovations'
p1944
I3938
sS'separated'
p1945
I3939
sS'chilli'
p1946
I3940
sS'award'
p1947
I3941
sS'blocking'
p1948
I3946
sS'bartender'
p1949
I968
sS'presentation'
p1950
I5714
sS'work'
p1951
I3953
sS'worm'
p1952
I3954
sS'worn'
p1953
I3955
sS'cuddle'
p1954
I3956
sS'era'
p1955
I3957
sS'mechanic'
p1956
I3958
sS'blooming'
p1957
I3959
sS'elbow'
p1958
I3960
sS'elegantly'
p1959
I1024
sS'volkswagon'
p1960
I3963
sS'piers'
p1961
I3964
sS'cans'
p1962
I3965
sS'airstrip'
p1963
I3967
sS'india'
p1964
I3969
sS'indicates'
p1965
I3972
sS'veggies'
p1966
I3973
sS'conditioner'
p1967
I3974
sS'acrobatic'
p1968
I3976
sS'provide'
p1969
I3980
sS'egyptian'
p1970
I5719
sS'nuts'
p1971
I3983
sS'fondant'
p1972
I3984
sS'boats'
p1973
I3990
sS'ordinary'
p1974
I3992
sS'fudge'
p1975
I3993
sS'pizza'
p1976
I3995
sS'ladder'
p1977
I4002
sS'earlier'
p1978
I4003
sS'hosing'
p1979
I4004
sS'damaged'
p1980
I653
sS'lab'
p1981
I4006
sS'lay'
p1982
I4008
sS'law'
p1983
I4011
sS'arch'
p1984
I4012
sS'headdress'
p1985
I4014
sS'greet'
p1986
I4018
sS'greek'
p1987
I4020
sS'green'
p1988
I4022
sS'south'
p1989
I6652
sS'ambulance'
p1990
I4024
sS'order'
p1991
I4027
sS'salon'
p1992
I4028
sS'popsicle'
p1993
I4029
sS'office'
p1994
I4030
sS'muffin'
p1995
I4031
sS'japan'
p1996
I4037
sS'nets'
p1997
I4038
sS'ticket'
p1998
I5729
sS'oncoming'
p1999
I6409
sS'somewhere'
p2000
I4042
sS'recreational'
p2001
I4043
sS'avocado'
p2002
I4044
sS'carton'
p2003
I4049
sS'strange'
p2004
I7225
sS'then'
p2005
I4051
sS'them'
p2006
I1608
sS'thee'
p2007
I4054
sS'safe'
p2008
I4055
sS'collide'
p2009
I4056
sS'touring'
p2010
I3229
sS'break'
p2011
I4058
sS'band'
p2012
I4059
sS'giraffe'
p2013
I4061
sS'reaches'
p2014
I3230
sS'they'
p2015
I4063
sS'ther'
p2016
I4065
sS'bank'
p2017
I4066
sS'bread'
p2018
I4067
sS'crock'
p2019
I4069
sS'ascends'
p2020
I4071
sS'l'
I4072
sS'rocks'
p2021
I4074
sS'dingy'
p2022
I4075
sS'embankment'
p2023
I4078
sS'flyers'
p2024
I4079
sS'puppet'
p2025
I3234
sS'feeds'
p2026
I4082
sS'lifted'
p2027
I4085
sS'kneels'
p2028
I4087
sS'logs'
p2029
I4088
sS'dumping'
p2030
I4089
sS'sled'
p2031
I4092
sS'logo'
p2032
I4097
sS'flock'
p2033
I4098
sS'motorized'
p2034
I4099
sS'cameras'
p2035
I4103
sS'diesel'
p2036
I4104
sS'forty'
p2037
I4105
sS'vessels'
p2038
I1936
sS'medicine'
p2039
I1964
sS'unkempt'
p2040
I4111
sS'forth'
p2041
I4114
sS'sliding'
p2042
I4115
sS'working'
p2043
I6464
sS'barrier'
p2044
I4117
sS'leftovers'
p2045
I4119
sS'standard'
p2046
I4121
sS'lollipop'
p2047
I4125
sS'shrubbery'
p2048
I4128
sS'baseman'
p2049
I4129
sS'created'
p2050
I4131
sS'creates'
p2051
I4136
sS'ordering'
p2052
I4137
sS'chopped'
p2053
I4140
sS'chased'
p2054
I5456
sS'another'
p2055
I3522
sS'thick'
p2056
I2248
sS'tangle'
p2057
I4148
sS'electronic'
p2058
I4149
sS'cooktop'
p2059
I682
sS'elevator'
p2060
I4160
sS'airy'
p2061
I4165
sS'john'
p2062
I4166
sS'dogs'
p2063
I4168
sS'kiwi'
p2064
I4170
sS'emblem'
p2065
I4174
sS'happily'
p2066
I4175
sS'luncheon'
p2067
I4176
sS'cereal'
p2068
I4183
sS'messing'
p2069
I3253
sS'target'
p2070
I4191
sS'hike'
p2071
I4193
sS'scenes'
p2072
I4195
sS'seated'
p2073
I4196
sS'historical'
p2074
I4199
sS'giraffes'
p2075
I4208
sS'navigate'
p2076
I4209
sS'giraffee'
p2077
I4211
sS'infront'
p2078
I2587
sS'stalls'
p2079
I4215
sS'contents'
p2080
I4219
sS'necktie'
p2081
I4222
sS'laden'
p2082
I4223
sS'casual'
p2083
I5748
sS'materials'
p2084
I4226
sS'luxury'
p2085
I4227
sS'swims'
p2086
I4229
sS'circles'
p2087
I4232
sS'gravy'
p2088
I4233
sS'extending'
p2089
I4238
sS'involving'
p2090
I4239
sS'germany'
p2091
I4240
sS'corded'
p2092
I4242
sS'grave'
p2093
I4245
sS'smoked'
p2094
I694
sS'swamp'
p2095
I4253
sS'fitted'
p2096
I4259
sS'firehydrant'
p2097
I3268
sS'chandelier'
p2098
I4267
sS'enjoyed'
p2099
I4271
sS'fisheye'
p2100
I4272
sS'toast'
p2101
I4273
sS'foraging'
p2102
I4274
sS'goalie'
p2103
I4279
sS'rectangle'
p2104
I4280
sS'do'
p2105
I4281
sS'cappuccino'
p2106
I4283
sS'dj'
p2107
I4284
sS'hangings'
p2108
I4285
sS'dc'
p2109
I4287
sS'frowning'
p2110
I4288
sS'roundabout'
p2111
I4290
sS'nasty'
p2112
I4293
sS'dr'
p2113
I4294
sS'runs'
p2114
I4296
sS'covering'
p2115
I4297
sS'emo'
p2116
I4298
sS'gears'
p2117
I4302
sS'steak'
p2118
I4304
sS'steal'
p2119
I4305
sS'steam'
p2120
I4306
sS'newspaper'
p2121
I2026
sS'observes'
p2122
I4309
sS'lemonade'
p2123
I4311
sS'observed'
p2124
I4312
sS'cattle'
p2125
I4314
sS'hairbrush'
p2126
I4317
sS'bunting'
p2127
I4318
sS'pastel'
p2128
I3320
sS'draws'
p2129
I4320
sS'snoozing'
p2130
I4321
sS'smoggy'
p2131
I4322
sS'away'
p2132
I4323
sS'gentleman'
p2133
I4324
sS'overgrown'
p2134
I4329
sS'unable'
p2135
I4330
sS'props'
p2136
I4333
sS'drawn'
p2137
I4335
sS'we'
p2138
I4338
sS'handful'
p2139
I4341
sS'packaged'
p2140
I4342
sS'wi'
p2141
I4344
sS'convertible'
p2142
I4350
sS'packages'
p2143
I4351
sS'ham'
p2144
I710
sS'cop'
p2145
I4355
sS'climate'
p2146
I4356
sS'cot'
p2147
I4358
sS'cow'
p2148
I4359
sS'cob'
p2149
I4365
sS'receiver'
p2150
I4367
sS'coo'
p2151
I4368
sS'peacefully'
p2152
I4369
sS'tone'
p2153
I4370
sS'spear'
p2154
I4371
sS'royal'
p2155
I4372
sS'tons'
p2156
I4373
sS'headlights'
p2157
I3645
sS'engines'
p2158
I4385
sS'dozens'
p2159
I4394
sS'scarecrow'
p2160
I4395
sS'cutouts'
p2161
I4399
sS'families'
p2162
I4400
sS'easy'
p2163
I4401
sS'relaxing'
p2164
I4402
sS'catering'
p2165
I4405
sS'east'
p2166
I718
sS'launches'
p2167
I4415
sS'air'
p2168
I4419
sS'aid'
p2169
I4423
sS'property'
p2170
I4425
sS'vegetarian'
p2171
I5783
sS'savanna'
p2172
I4427
sS'cylinder'
p2173
I4428
sS'sticker'
p2174
I4434
sS'tissue'
p2175
I4439
sS'brake'
p2176
I4440
sS'cone'
p2177
I4441
sS'descent'
p2178
I4445
sS'drawers'
p2179
I5787
sS'perform'
p2180
I4447
sS'demonstration'
p2181
I3295
sS'plated'
p2182
I4449
sS'descend'
p2183
I4453
sS'plater'
p2184
I4454
sS'plates'
p2185
I4455
sS'bunny'
p2186
I4457
sS'perimeter'
p2187
I4458
sS'plating'
p2188
I4091
sS'rail'
p2189
I2301
sS'evil'
p2190
I4124
sS'hand'
p2191
I4465
sS'documents'
p2192
I3300
sS'wispy'
p2193
I4472
sS'kept'
p2194
I4473
sS'condiments'
p2195
I4474
sS'peacocks'
p2196
I4475
sS'huddling'
p2197
I4476
sS'compartments'
p2198
I4477
sS'contact'
p2199
I4478
sS'mamma'
p2200
I4479
sS'the'
p2201
I4483
sS'musical'
p2202
I4484
sS'uniquely'
p2203
I5795
sS'mingle'
p2204
I4489
sS'kale'
p2205
I4490
sS'athletic'
p2206
I4491
sS'photo'
p2207
I4492
sS'goggles'
p2208
I4496
sS'upturned'
p2209
I4498
sS'adding'
p2210
I4500
sS'boars'
p2211
I4501
sS'poses'
p2212
I4502
sS'hills'
p2213
I4503
sS'flooring'
p2214
I4504
sS'yamaha'
p2215
I4505
sS'photographer'
p2216
I5160
sS'occupants'
p2217
I4508
sS'hilly'
p2218
I4509
sS'spread'
p2219
I4392
sS'transformed'
p2220
I4511
sS'board'
p2221
I4398
sS'photographed'
p2222
I4515
sS'boxed'
p2223
I4518
sS'mayo'
p2224
I4520
sS'caps'
p2225
I4522
sS'boxes'
p2226
I4523
sS'boxer'
p2227
I4524
sS'barge'
p2228
I4526
sS'cape'
p2229
I4528
sS'hairless'
p2230
I4531
sS'cooler'
p2231
I4535
sS'lily'
p2232
I4536
sS'grizzly'
p2233
I4537
sS'xbox'
p2234
I4540
sS'sparse'
p2235
I4543
sS'night'
p2236
I4544
sS'security'
p2237
I4546
sS'antique'
p2238
I4547
sS'kitesurfing'
p2239
I4551
sS'born'
p2240
I4555
sS'confusing'
p2241
I2855
sS'nuzzles'
p2242
I4560
sS'purple'
p2243
I4561
sS'filming'
p2244
I4565
sS'asking'
p2245
I4567
sS'adorable'
p2246
I4569
sS'peek'
p2247
I4573
sS'posh'
p2248
I4575
sS'pose'
p2249
I4577
sS'illustration'
p2250
I4578
sS'graduates'
p2251
I4579
sS'architectural'
p2252
I4581
sS'peer'
p2253
I3625
sS'post'
p2254
I4583
sS'trophy'
p2255
I4587
sS'breaded'
p2256
I4588
sS'diner'
p2257
I4589
sS'coral'
p2258
I4591
sS'anime'
p2259
I4598
sS'horizon'
p2260
I4599
sS'octopus'
p2261
I4601
sS'pineapples'
p2262
I4603
sS'mantle'
p2263
I4606
sS'float'
p2264
I4609
sS'bound'
p2265
I4610
sS'balances'
p2266
I4611
sS'rendering'
p2267
I4612
sS'capped'
p2268
I4615
sS'balanced'
p2269
I4618
sS'strangely'
p2270
I4622
sS'fight'
p2271
I4625
sS'way'
p2272
I4629
sS'wax'
p2273
I4630
sS'was'
p2274
I4632
sS'war'
p2275
I4633
sS'snowy'
p2276
I4638
sS'converse'
p2277
I4639
sS'snows'
p2278
I4641
sS'taken'
p2279
I5815
sS'needles'
p2280
I4645
sS'dead'
p2281
I4647
sS'sailboats'
p2282
I4649
sS'braves'
p2283
I5264
sS'crystal'
p2284
I4658
sS'winery'
p2285
I4660
sS'coverings'
p2286
I4661
sS'unusually'
p2287
I4663
sS'stranded'
p2288
I4669
sS'ladybug'
p2289
I6265
sS'umpire'
p2290
I4672
sS'muscular'
p2291
I4674
sS'mousepad'
p2292
I4678
sS'baguette'
p2293
I4681
sS'dimly'
p2294
I4682
sS'dying'
p2295
I4684
sS'stake'
p2296
I4687
sS'handmade'
p2297
I5457
sS'topped'
p2298
I4689
sS'shrine'
p2299
I4692
sS'carpeting'
p2300
I4694
sS'topper'
p2301
I4696
sS'frolic'
p2302
I4698
sS'juicer'
p2303
I4703
sS'welcome'
p2304
I4705
sS'notepad'
p2305
I4706
sS'ruffled'
p2306
I762
sS'tugboat'
p2307
I4713
sS'together'
p2308
I4722
sS'collared'
p2309
I4723
sS'reception'
p2310
I4724
sS'concept'
p2311
I4729
sS'dance'
p2312
I4731
sS'silverware'
p2313
I4735
sS'horseback'
p2314
I4736
sS'daytime'
p2315
I4738
sS'battle'
p2316
I4739
sS'toothpick'
p2317
I4740
sS'layers'
p2318
I4742
sS'touches'
p2319
I4744
sS'grape'
p2320
I4745
sS'zone'
p2321
I4747
sS'hovers'
p2322
I4748
sS'hump'
p2323
I4749
sS'flash'
p2324
I4750
sS'tusk'
p2325
I4757
sS'southwest'
p2326
I1107
sS'brown'
p2327
I4761
sS'protective'
p2328
I4762
sS'brownie'
p2329
I4764
sS'seemingly'
p2330
I1174
sS'automobiles'
p2331
I4767
sS'kitten'
p2332
I4771
sS'trouble'
p2333
I4773
sS'aggressively'
p2334
I4775
sS'presented'
p2335
I4779
sS'turns'
p2336
I4780
sS'gun'
p2337
I4782
sS'gum'
p2338
I4783
sS'p'
I4785
sS'guitars'
p2339
I4787
sS'steeple'
p2340
I4788
sS'guy'
p2341
I4790
sS'woven'
p2342
I4791
sS'upper'
p2343
I4793
sS'brave'
p2344
I4795
sS'prairie'
p2345
I4797
sS'cargo'
p2346
I4804
sS'appear'
p2347
I6124
sS'barbie'
p2348
I4806
sS'wildebeest'
p2349
I4808
sS'shares'
p2350
I4810
sS'uniform'
p2351
I4811
sS'peels'
p2352
I4812
sS'shared'
p2353
I4814
sS'supporting'
p2354
I4816
sS'peeled'
p2355
I4817
sS'goldfish'
p2356
I4824
sS'teaches'
p2357
I4827
sS'appears'
p2358
I1820
sS'change'
p2359
I4829
sS'sending'
p2360
I5179
sS'incoming'
p2361
I4832
sS'flames'
p2362
I4834
sS'exiting'
p2363
I4839
sS'bangs'
p2364
I4841
sS'usually'
p2365
I4844
sS'pillow'
p2366
I4847
sS'defensive'
p2367
I4849
sS'hiking'
p2368
I4850
sS'extra'
p2369
I4851
sS'marked'
p2370
I4853
sS'uphill'
p2371
I4854
sS'snowboard'
p2372
I4856
sS'seashore'
p2373
I4857
sS'marker'
p2374
I4858
sS'during'
p2375
I6825
sS'market'
p2376
I4859
sS'flavors'
p2377
I4860
sS'buttons'
p2378
I3364
sS'streetcar'
p2379
I4862
sS'live'
p2380
I4865
sS'planted'
p2381
I3365
sS'ripening'
p2382
I4871
sS'angels'
p2383
I4873
sS'intently'
p2384
I4876
sS'entrance'
p2385
I4879
sS'countertop'
p2386
I4883
sS'club'
p2387
I4884
sS'envelope'
p2388
I4886
sS'futon'
p2389
I4887
sS'countertops'
p2390
I4895
sS'cay'
p2391
I4897
sS'graphic'
p2392
I4898
sS'skaters'
p2393
I4899
sS'decked'
p2394
I4901
sS'car'
p2395
I4902
sS'cap'
p2396
I4903
sS'cat'
p2397
I4905
sS'decker'
p2398
I4906
sS'labeled'
p2399
I4907
sS'gathers'
p2400
I4908
sS'can'
p2401
I4909
sS'cab'
p2402
I4910
sS'mouses'
p2403
I4915
sS'heart'
p2404
I4917
sS'dedicated'
p2405
I4918
sS'grassy'
p2406
I4920
sS'pauses'
p2407
I4922
sS'chip'
p2408
I4923
sS'heard'
p2409
I4924
sS'chin'
p2410
I4926
sS'spa'
p2411
I4929
sS'clothing'
p2412
I4930
sS'airplane'
p2413
I5859
sS'wetsuits'
p2414
I4932
sS'discussion'
p2415
I4935
sS'spreads'
p2416
I4936
sS'trophies'
p2417
I4938
sS'lounge'
p2418
I4940
sS'afternoon'
p2419
I4945
sS'product'
p2420
I4946
sS'staircase'
p2421
I4948
sS'dive'
p2422
I4950
sS'use'
p2423
I6713
sS'southern'
p2424
I4951
sS'jousting'
p2425
I4954
sS'produce'
p2426
I4955
sS'vases'
p2427
I4958
sS'lifting'
p2428
I4961
sS'crepe'
p2429
I4963
sS'noses'
p2430
I4964
sS'brussel'
p2431
I4966
sS'candles'
p2432
I4967
sS'baseballs'
p2433
I1825
sS'typical'
p2434
I4975
sS'tagged'
p2435
I4976
sS'serving'
p2436
I4977
sS'colt'
p2437
I4980
sS'haircut'
p2438
I4981
sS'displayed'
p2439
I4982
sS'playful'
p2440
I4983
sS'tablets'
p2441
I4985
sS'congregating'
p2442
I4986
sS'cold'
p2443
I4987
sS'cole'
p2444
I4988
sS'birds'
p2445
I4989
sS'cola'
p2446
I4990
sS'tending'
p2447
I4991
sS'rooftop'
p2448
I4992
sS'curly'
p2449
I4994
sS'holing'
p2450
I4996
sS'reacting'
p2451
I4997
sS'curls'
p2452
I4998
sS'vicinity'
p2453
I4999
sS'forms'
p2454
I5000
sS'window'
p2455
I5002
sS'spacious'
p2456
I5004
sS'tiara'
p2457
I5008
sS'non'
p2458
I5011
sS'fling'
p2459
I5013
sS'tails'
p2460
I5016
sS'1950'
p2461
I5017
sS'half'
p2462
I5018
sS'not'
p2463
I5019
sS'now'
p2464
I5021
sS'discuss'
p2465
I5022
sS'galloping'
p2466
I5023
sS'commuters'
p2467
I5025
sS'streaks'
p2468
I5028
sS'drop'
p2469
I5030
sS'backsplash'
p2470
I5031
sS'entirely'
p2471
I5033
sS'cliffs'
p2472
I5034
sS'unloaded'
p2473
I5035
sS'sugary'
p2474
I5037
sS'en'
p2475
I5038
sS'fired'
p2476
I5039
sS'ed'
p2477
I5041
sS'directing'
p2478
I5042
sS'goose'
p2479
I5044
sS'fires'
p2480
I5045
sS'ex'
p2481
I5047
sS'year'
p2482
I5048
sS'happen'
p2483
I5049
sS'teams'
p2484
I3391
sS'pills'
p2485
I5051
sS'amusement'
p2486
I5052
sS'album'
p2487
I5054
sS'shown'
p2488
I5056
sS'opened'
p2489
I5057
sS'space'
p2490
I5058
sS'looking'
p2491
I5061
sS'opener'
p2492
I5062
sS'navigating'
p2493
I5063
sS'overlook'
p2494
I7382
sS'showroom'
p2495
I5064
sS'receiving'
p2496
I5065
sS'shows'
p2497
I5067
sS'cars'
p2498
I5071
sS'cart'
p2499
I5072
sS'marina'
p2500
I5075
sS'marine'
p2501
I5076
sS'card'
p2502
I5078
sS'care'
p2503
I5079
sS'cycles'
p2504
I3395
sS'selections'
p2505
I5081
sS'british'
p2506
I5084
sS'tangled'
p2507
I5088
sS'domed'
p2508
I5092
sS'altitude'
p2509
I825
sS'adventure'
p2510
I4693
sS'blind'
p2511
I5097
sS'flying'
p2512
I5099
sS'shears'
p2513
I5100
sS'striking'
p2514
I5101
sS'mountainside'
p2515
I5103
sS'flipping'
p2516
I5104
sS'directly'
p2517
I2422
sS'message'
p2518
I287
sS'size'
p2519
I5111
sS'sheep'
p2520
I5112
sS'sheer'
p2521
I5114
sS'sheet'
p2522
I5115
sS'jugs'
p2523
I5116
sS'caught'
p2524
I5120
sS'breed'
p2525
I5121
sS'tusks'
p2526
I5123
sS'checker'
p2527
I353
sS'carousel'
p2528
I5126
sS'puddle'
p2529
I5580
sS'friend'
p2530
I5131
sS'mostly'
p2531
I5135
sS'that'
p2532
I5136
sS'expanse'
p2533
I5138
sS'flowery'
p2534
I435
sS'thai'
p2535
I5141
sS'flowers'
p2536
I5142
sS'than'
p2537
I5144
sS'professionals'
p2538
I5145
sS'television'
p2539
I5146
sS'rugged'
p2540
I5147
sS'overhang'
p2541
I2114
sS'fruits'
p2542
I5154
sS'happy'
p2543
I5157
sS'angel'
p2544
I5162
sS'slaw'
p2545
I5163
sS'slat'
p2546
I5164
sS'racetrack'
p2547
I5895
sS'distorted'
p2548
I5169
sS'breakfast'
p2549
I5172
sS'slab'
p2550
I5173
sS'offering'
p2551
I5178
sS'snout'
p2552
I5180
sS'equipment'
p2553
I5181
sS'freezer'
p2554
I7144
sS'telephones'
p2555
I5898
sS'begin'
p2556
I752
sS'price'
p2557
I5194
sS'neatly'
p2558
I5195
sS'lookers'
p2559
I5200
sS'america'
p2560
I5202
sS'feminine'
p2561
I843
sS'tooth'
p2562
I5211
sS'sunset'
p2563
I5213
sS'pattern'
p2564
I3418
sS'professional'
p2565
I5215
sS'filing'
p2566
I5218
sS'german'
p2567
I5224
sS'scoreboard'
p2568
I5226
sS'fifth'
p2569
I5230
sS'ground'
p2570
I1008
sS'snack'
p2571
I5232
sS'gauges'
p2572
I5909
sS'gnar'
p2573
I1028
sS'stained'
p2574
I5236
sS'only'
p2575
I5241
sS'stain'
p2576
I5244
sS'interstate'
p2577
I5247
sS'televisions'
p2578
I5248
sS'pastrami'
p2579
I5249
sS'congratulations'
p2580
I5251
sS'truly'
p2581
I5252
sS'remotes'
p2582
I5253
sS'cannot'
p2583
I5254
sS'bracelets'
p2584
I5255
sS'stroll'
p2585
I3251
sS'leather'
p2586
I5263
sS'peson'
p2587
I852
sS'husband'
p2588
I5272
sS'concert'
p2589
I5276
sS'staged'
p2590
I5277
sS'anchored'
p2591
I5278
sS'actively'
p2592
I5279
sS'asleep'
p2593
I5280
sS'sport'
p2594
I5283
sS'colgate'
p2595
I5284
sS'glaze'
p2596
I5289
sS'3'
I5292
sS'skyscraper'
p2597
I5293
sS'between'
p2598
I5294
sS'whipped'
p2599
I5295
sS'notice'
p2600
I5297
sS'article'
p2601
I5303
sS'installation'
p2602
I5307
sS'fliers'
p2603
I5309
sS'monk'
p2604
I5311
sS'flaps'
p2605
I4571
sS'wheels'
p2606
I5314
sS'comes'
p2607
I5315
sS'nearby'
p2608
I5316
sS'overview'
p2609
I5321
sS'jeans'
p2610
I5323
sS'wreaths'
p2611
I5329
sS'learning'
p2612
I5331
sS'forehand'
p2613
I5333
sS'pigtails'
p2614
I5336
sS'sledding'
p2615
I5337
sS'olives'
p2616
I5341
sS'cycling'
p2617
I5342
sS'tropical'
p2618
I5345
sS'spices'
p2619
I6694
sS'wonderful'
p2620
I6775
sS'fours'
p2621
I1899
sS'language'
p2622
I1271
sS'stovetop'
p2623
I5359
sS'external'
p2624
I5360
sS'rubs'
p2625
I5361
sS'stems'
p2626
I5362
sS'foggy'
p2627
I5364
sS'skiers'
p2628
I1941
sS'vespa'
p2629
I5369
sS'these'
p2630
I5371
sS'trick'
p2631
I5375
sS'joke'
p2632
I3435
sS'alcoholic'
p2633
I5381
sS'soil'
p2634
I5383
sS'inflatable'
p2635
I5384
sS'figurines'
p2636
I5385
sS'embrace'
p2637
I5390
sS'sprouts'
p2638
I5391
sS'heels'
p2639
I5392
sS'return'
p2640
I5935
sS'waterway'
p2641
I5394
sS'stickers'
p2642
I5395
sS'ship'
p2643
I5396
sS'media'
p2644
I5401
sS'sugared'
p2645
I3441
sS'gentlemen'
p2646
I5406
sS'figurine'
p2647
I5408
sS'lite'
p2648
I5410
sS'figures'
p2649
I5411
sS'document'
p2650
I5412
sS'numerals'
p2651
I5416
sS'sweeper'
p2652
I5417
sS'finish'
p2653
I5418
sS'closest'
p2654
I5421
sS'squatted'
p2655
I5422
sS'foal'
p2656
I5423
sS'foam'
p2657
I5424
sS'vista'
p2658
I5426
sS'fruit'
p2659
I5432
sS'investigates'
p2660
I5433
sS'volley'
p2661
I3446
sS'theater'
p2662
I2329
sS'patchwork'
p2663
I5443
sS'charger'
p2664
I5444
sS'breeze'
p2665
I5446
sS'peripherals'
p2666
I5450
sS'taxi'
p2667
I5453
sS'livestock'
p2668
I5455
sS'vent'
p2669
I2521
sS'dancers'
p2670
I5459
sS'neon'
p2671
I5460
sS'foot'
p2672
I5947
sS'touch'
p2673
I5464
sS'speed'
p2674
I5466
sS'mingling'
p2675
I2498
sS'snowboarder'
p2676
I5472
sS'thinking'
p2677
I5474
sS'mirrored'
p2678
I5478
sS'desktop'
p2679
I5479
sS'trestle'
p2680
I2534
sS'trinkets'
p2681
I1036
sS'propped'
p2682
I5488
sS'hover'
p2683
I5489
sS'frown'
p2684
I5490
sS'rules'
p2685
I2608
sS'ruler'
p2686
I5492
sS'stools'
p2687
I5494
sS'early'
p2688
I5496
sS'overlooks'
p2689
I5498
sS'listening'
p2690
I5499
sS'amp'
p2691
I2652
sS'lady'
p2692
I5503
sS'fryer'
p2693
I5504
sS'rear'
p2694
I5505
sS'conversing'
p2695
I6190
sS'postcard'
p2696
I5510
sS'streamers'
p2697
I2707
sS'blackberry'
p2698
I2729
sS'downward'
p2699
I5518
sS'ceremonial'
p2700
I5519
sS'vegtables'
p2701
I5520
sS'twelve'
p2702
I5521
sS'boxcars'
p2703
I7193
sS'exposed'
p2704
I2777
sS'garland'
p2705
I5529
sS'yaks'
p2706
I5531
sS'dealership'
p2707
I5538
sS'recorder'
p2708
I2918
sS'wheat'
p2709
I2940
sS'pylons'
p2710
I5545
sS'business'
p2711
I5546
sS'chefs'
p2712
I5548
sS'volkswagen'
p2713
I5550
sS'incline'
p2714
I7365
sS'sniffs'
p2715
I5551
sS'papered'
p2716
I5552
sS'leftover'
p2717
I5553
sS'strainer'
p2718
I5554
sS'exciting'
p2719
I5555
sS'throw'
p2720
I5556
sS'central'
p2721
I5559
sS'kickflip'
p2722
I5560
sS'paints'
p2723
I5562
sS'choo'
p2724
I5564
sS'chop'
p2725
I5565
sS'journey'
p2726
I5566
sS'wolf'
p2727
I5567
sS'chow'
p2728
I2693
sS'processor'
p2729
I5571
sS'heater'
p2730
I5572
sS'heated'
p2731
I5581
sS'tilted'
p2732
I5963
sS'your'
p2733
I5583
sS'stare'
p2734
I5585
sS'grates'
p2735
I5586
sS'grater'
p2736
I5587
sS'log'
p2737
I5588
sS'prepare'
p2738
I5589
sS'area'
p2739
I5590
sS'removing'
p2740
I5591
sS'stark'
p2741
I5593
sS'start'
p2742
I3245
sS'cats'
p2743
I5595
sS'grated'
p2744
I3256
sS'lot'
p2745
I3260
sS'shower'
p2746
I5603
sS'pitcher'
p2747
I5608
sS'pitches'
p2748
I5609
sS'curiously'
p2749
I5612
sS'omelet'
p2750
I5613
sS'cottage'
p2751
I5614
sS'pitched'
p2752
I5615
sS'trying'
p2753
I5616
sS'outskirts'
p2754
I5617
sS'toned'
p2755
I5618
sS'embedded'
p2756
I5620
sS'appliance'
p2757
I3399
sS'tones'
p2758
I5623
sS'oxen'
p2759
I5626
sS'scanner'
p2760
I5627
sS'describe'
p2761
I5631
sS'moved'
p2762
I5632
sS'sales'
p2763
I5633
sS'moves'
p2764
I3517
sS'nerd'
p2765
I5637
sS'cabinets'
p2766
I5639
sS'antenna'
p2767
I5641
sS'storage'
p2768
I5643
sS'foothills'
p2769
I5644
sS'defaced'
p2770
I7082
sS'milking'
p2771
I5649
sS'you'
p2772
I5650
sS'houseboat'
p2773
I5653
sS'poor'
p2774
I5654
sS'suites'
p2775
I3623
sS'poop'
p2776
I5656
sS'pear'
p2777
I2337
sS'peas'
p2778
I5662
sS'peal'
p2779
I3668
sS'peak'
p2780
I5665
sS'suited'
p2781
I5666
sS'pooh'
p2782
I5667
sS'overturned'
p2783
I5668
sS'pool'
p2784
I5669
sS'building'
p2785
I5671
sS'vines'
p2786
I5676
sS'untidy'
p2787
I5677
sS'embracing'
p2788
I5680
sS'abstract'
p2789
I7440
sS'strings'
p2790
I5685
sS'forrest'
p2791
I2655
sS'roasting'
p2792
I5686
sS'surrounded'
p2793
I5979
sS'skeleton'
p2794
I5689
sS'pointing'
p2795
I5690
sS'peacock'
p2796
I5691
sS'bull'
p2797
I6944
sS'surboard'
p2798
I5694
sS'mp3'
p2799
I5699
sS'messy'
p2800
I5701
sS'religious'
p2801
I5704
sS'carpet'
p2802
I5705
sS'blueberries'
p2803
I5706
sS'icons'
p2804
I5707
sS'kneepads'
p2805
I5711
sS'fountain'
p2806
I5713
sS'washroom'
p2807
I5716
sS'very'
p2808
I5720
sS'robes'
p2809
I5722
sS'me'
p2810
I3948
sS'balancing'
p2811
I5726
sS'louis'
p2812
I5731
sS'study'
p2813
I5738
sS'locomotive'
p2814
I5739
sS'cookies'
p2815
I5741
sS'fence'
p2816
I5742
sS'streets'
p2817
I5744
sS'nearing'
p2818
I5746
sS'hamper'
p2819
I4225
sS'darkness'
p2820
I5751
sS'labels'
p2821
I5753
sS'scallops'
p2822
I5759
sS'edited'
p2823
I5763
sS'loose'
p2824
I5768
sS'tracks'
p2825
I5769
sS'dune'
p2826
I5998
sS'trunk'
p2827
I5772
sS'strong'
p2828
I5774
sS'arena'
p2829
I5776
sS'bathtub'
p2830
I5778
sS'colored'
p2831
I5779
sS'ahead'
p2832
I5780
sS'inspired'
p2833
I4426
sS'whine'
p2834
I5784
sS'creepy'
p2835
I5786
sS'soldier'
p2836
I4446
sS'amount'
p2837
I5788
sS'advertising'
p2838
I5790
sS'real'
p2839
I5792
sS'trainer'
p2840
I4487
sS'family'
p2841
I5797
sS'bordered'
p2842
I5798
sS'aimed'
p2843
I5802
sS'trained'
p2844
I5803
sS'toys'
p2845
I5804
sS'chunks'
p2846
I5805
sS'thatched'
p2847
I5806
sS'attendant'
p2848
I6005
sS'conventional'
p2849
I5809
sS'takes'
p2850
I5810
sS'contains'
p2851
I5812
sS'mysterious'
p2852
I4643
sS'autographs'
p2853
I5818
sS'chestnut'
p2854
I5821
sS'lowering'
p2855
I4670
sS'propellers'
p2856
I5825
sS'scallions'
p2857
I5827
sS'broke'
p2858
I5830
sS'browned'
p2859
I5831
sS'mounted'
p2860
I5832
sS'producing'
p2861
I5833
sS'grill'
p2862
I5835
sS'nine'
p2863
I5840
sS'fronted'
p2864
I5841
sS'parasol'
p2865
I5845
sS'barbwire'
p2866
I5846
sS'pushes'
p2867
I5850
sS'747'
p2868
I5851
sS'pushed'
p2869
I5854
sS'cows'
p2870
I5857
sS'species'
p2871
I5861
sS'hamburgers'
p2872
I5862
sS'icing'
p2873
I5863
sS'cheering'
p2874
I6013
sS'chops'
p2875
I5870
sS'ostriches'
p2876
I5872
sS'menus'
p2877
I5873
sS'daisy'
p2878
I5879
sS'tries'
p2879
I5882
sS'fe'
p2880
I5096
sS'horizontal'
p2881
I5886
sS'fo'
p2882
I5889
sS'a'
I5890
sS'workstation'
p2883
I5891
sS'bookbag'
p2884
I7332
sS'bugs'
p2885
I5165
sS'chopsticks'
p2886
I5187
sS'crafts'
p2887
I5900
sS'banks'
p2888
I5901
sS'breads'
p2889
I5904
sS'egg'
p2890
I5905
sS'chicks'
p2891
I5906
sS'remnants'
p2892
I5907
sS'help'
p2893
I5908
sS'rhinos'
p2894
I5912
sS'urine'
p2895
I5913
sS'soon'
p2896
I5914
sS'cyclists'
p2897
I5915
sS'held'
p2898
I5918
sS'wiener'
p2899
I5919
sS'mcdonalds'
p2900
I5920
sS'carpeted'
p2901
I5923
sS'heron'
p2902
I5925
sS'actually'
p2903
I5926
sS'systems'
p2904
I5929
sS'peanuts'
p2905
I5930
sS'evening'
p2906
I5934
sS'glares'
p2907
I5936
sS'nestled'
p2908
I5937
sS'food'
p2909
I5938
sS'cel'
p2910
I5939
sS'petted'
p2911
I5940
sS'cupcake'
p2912
I5942
sS'terrain'
p2913
I7108
sS'starbucks'
p2914
I5945
sS'sweeping'
p2915
I5461
sS'towering'
p2916
I5948
sS'fully'
p2917
I5954
sS'kayaking'
p2918
I5955
sS'stopped'
p2919
I5957
sS'fairy'
p2920
I5960
sS'trailer'
p2921
I5961
sS'heavy'
p2922
I5282
sS'positioned'
p2923
I5966
sS'beyond'
p2924
I5971
sS'event'
p2925
I5973
sS'travels'
p2926
I5974
sS'since'
p2927
I5688
sS'safety'
p2928
I4108
sS'7'
I5985
sS'ass'
p2929
I5990
sS'expansive'
p2930
I5991
sS'drink'
p2931
I5992
sS'protruding'
p2932
I5993
sS'dirt'
p2933
I5994
sS'pug'
p2934
I5996
sS'pub'
p2935
I5771
sS'houses'
p2936
I6000
sS'base'
p2937
I6001
sS'coastline'
p2938
I6003
sS'put'
p2939
I6004
sS'pup'
p2940
I6006
sS'algae'
p2941
I6007
sS'dishwasher'
p2942
I6010
sS'launch'
p2943
I6012
sS'caption'
p2944
I5868
sS'american'
p2945
I6014
sS'businessmen'
p2946
I6015
sS'automobile'
p2947
I3778
sS'doughnuts'
p2948
I6024
sS'reflected'
p2949
I6025
sS'elder'
p2950
I6029
sS'hangs'
p2951
I6050
sS'mist'
p2952
I6037
sS'miss'
p2953
I6038
sS'maple'
p2954
I6040
sS'horse'
p2955
I6043
sS'blossom'
p2956
I6046
sS'airborne'
p2957
I6033
sS'pinned'
p2958
I6052
sS'collage'
p2959
I6053
sS'station'
p2960
I6054
sS'fielder'
p2961
I6055
sS'trails'
p2962
I6057
sS'scheme'
p2963
I6058
sS'banana'
p2964
I6060
sS'selling'
p2965
I6064
sS'storm'
p2966
I6065
sS'trapped'
p2967
I6066
sS'readies'
p2968
I7201
sS'signaling'
p2969
I6068
sS'grocery'
p2970
I6073
sS'hundred'
p2971
I6074
sS'performers'
p2972
I6075
sS'grey'
p2973
I6078
sS'photographing'
p2974
I6080
sS'bride'
p2975
I6081
sS'toward'
p2976
I6086
sS'mickey'
p2977
I6087
sS'deciding'
p2978
I6088
sS'coleslaw'
p2979
I6091
sS'alongside'
p2980
I6092
sS'juicy'
p2981
I6093
sS'juice'
p2982
I6094
sS'bridled'
p2983
I6095
sS'lid'
p2984
I6098
sS'lie'
p2985
I6099
sS'koala'
p2986
I6100
sS'flaming'
p2987
I6103
sS'officers'
p2988
I6104
sS'camouflage'
p2989
I6105
sS'lit'
p2990
I6106
sS'lip'
p2991
I6107
sS'towards'
p2992
I6110
sS'wallpapered'
p2993
I6112
sS'quote'
p2994
I6113
sS'bridle'
p2995
I6119
sS'fridges'
p2996
I6120
sS'eaten'
p2997
I6121
sS'mack'
p2998
I6123
sS'sturdy'
p2999
I6127
sS'mobile'
p3000
I6128
sS'clear'
p3001
I6130
sS'outhouse'
p3002
I6131
sS'clean'
p3003
I6133
sS'blend'
p3004
I5343
sS'hips'
p3005
I6136
sS'cowgirl'
p3006
I6141
sS'booze'
p3007
I6143
sS'stores'
p3008
I6146
sS'scooter'
p3009
I6152
sS'pretty'
p3010
I6155
sS'circle'
p3011
I6156
sS'trees'
p3012
I6164
sS'speckled'
p3013
I6165
sS'famous'
p3014
I6166
sS'pretending'
p3015
I6167
sS'competing'
p3016
I6168
sS'treed'
p3017
I6169
sS'chimney'
p3018
I6171
sS'catches'
p3019
I6172
sS'gloved'
p3020
I6173
sS'withe'
p3021
I6174
sS'badge'
p3022
I1009
sS'toliet'
p3023
I6177
sS'witha'
p3024
I6178
sS'gloves'
p3025
I6181
sS'x'
I6184
sS'throwing'
p3026
I6195
sS'portrait'
p3027
I6199
sS'patties'
p3028
I6206
sS'pictures'
p3029
I6207
sS'won'
p3030
I6211
sS'wok'
p3031
I6214
sS'probably'
p3032
I6215
sS'conditions'
p3033
I6216
sS'pictured'
p3034
I6217
sS'missing'
p3035
I6222
sS'spray'
p3036
I6228
sS'readying'
p3037
I6229
sS'zipper'
p3038
I6231
sS'league'
p3039
I6233
sS'eggplant'
p3040
I6239
sS'boxers'
p3041
I6240
sS'protector'
p3042
I6242
sS'stoplight'
p3043
I6243
sS'batters'
p3044
I6244
sS'headed'
p3045
I6246
sS'battery'
p3046
I6247
sS'awnings'
p3047
I6249
sS'badminton'
p3048
I6250
sS'likes'
p3049
I6251
sS'vessel'
p3050
I6253
sS'naps'
p3051
I6259
sS'stamp'
p3052
I6260
sS'damp'
p3053
I6261
sS'maintenance'
p3054
I6269
sS'collected'
p3055
I6270
sS'territory'
p3056
I6272
sS'instructing'
p3057
I6273
sS'empty'
p3058
I6274
sS'lived'
p3059
I6278
sS'partly'
p3060
I6279
sS'clipped'
p3061
I6280
sS'packs'
p3062
I6281
sS'illuminates'
p3063
I343
sS'wet'
p3064
I6283
sS'imac'
p3065
I6284
sS'else'
p3066
I6285
sS'intriguing'
p3067
I6292
sS'loom'
p3068
I6293
sS'soiled'
p3069
I6294
sS'look'
p3070
I6295
sS'rope'
p3071
I6300
sS'pace'
p3072
I6301
sS'while'
p3073
I2055
sS'smart'
p3074
I6304
sS'fleet'
p3075
I6305
sS'animated'
p3076
I6306
sS'biking'
p3077
I6307
sS'guide'
p3078
I6308
sS'loop'
p3079
I6309
sS'pack'
p3080
I6310
sS'overlooked'
p3081
I6313
sS'embroidered'
p3082
I6316
sS'reads'
p3083
I6317
sS'wildflowers'
p3084
I6318
sS'ready'
p3085
I6320
sS'baseline'
p3086
I212
sS'cuddles'
p3087
I6323
sS'remodel'
p3088
I6097
sS'grand'
p3089
I6327
sS'hallway'
p3090
I6332
sS'used'
p3091
I6333
sS'temporary'
p3092
I6334
sS'curbside'
p3093
I6335
sS'pomegranate'
p3094
I6336
sS'overweight'
p3095
I6338
sS'youngsters'
p3096
I6339
sS'uses'
p3097
I6344
sS'cleaning'
p3098
I329
sS'cityscape'
p3099
I6346
sS'assortment'
p3100
I344
sS'older'
p3101
I6351
sS'docked'
p3102
I6353
sS'wedged'
p3103
I6354
sS'grind'
p3104
I6355
sS'grins'
p3105
I6360
sS'wedges'
p3106
I6361
sS'yankees'
p3107
I6363
sS'lobsters'
p3108
I6364
sS'cave'
p3109
I6365
sS'quarters'
p3110
I6371
sS'roasted'
p3111
I6375
sS'praying'
p3112
I6376
sS'afro'
p3113
I6377
sS'canisters'
p3114
I6383
sS'cemetery'
p3115
I6384
sS'exercising'
p3116
I6385
sS'cherries'
p3117
I6387
sS'remaining'
p3118
I6389
sS'march'
p3119
I6392
sS'radiator'
p3120
I6393
sS'showing'
p3121
I6395
sS'enthusiastically'
p3122
I6398
sS'game'
p3123
I6399
sS'flamingo'
p3124
I6400
sS'wings'
p3125
I6402
sS'vests'
p3126
I6405
sS'signal'
p3127
I2270
sS'toyota'
p3128
I6410
sS'hammer'
p3129
I6414
sS'vibrant'
p3130
I6415
sS'sleigh'
p3131
I783
sS'saddled'
p3132
I6417
sS'parade'
p3133
I819
sS'fathers'
p3134
I6419
sS'creation'
p3135
I6420
sS'some'
p3136
I6421
sS'lips'
p3137
I6424
sS'saddles'
p3138
I6427
sS'mustang'
p3139
I6429
sS'delivered'
p3140
I6432
sS'describing'
p3141
I6433
sS'dilapidated'
p3142
I6434
sS'minimal'
p3143
I6438
sS'cgi'
p3144
I6439
sS'eating'
p3145
I996
sS'rub'
p3146
I6443
sS'processing'
p3147
I6446
sS'rug'
p3148
I6447
sS'rue'
p3149
I1023
sS'step'
p3150
I6451
sS'assists'
p3151
I6452
sS'stew'
p3152
I6453
sS'alleyway'
p3153
I6455
sS'feild'
p3154
I6456
sS'pitchers'
p3155
I6457
sS'raspberry'
p3156
I6458
sS'smothered'
p3157
I6459
sS'shine'
p3158
I6462
sS'gnome'
p3159
I1490
sS'shiny'
p3160
I6474
sS'block'
p3161
I6475
sS'seeing'
p3162
I6476
sS'visit'
p3163
I6478
sS'within'
p3164
I6479
sS'tofu'
p3165
I6480
sS'sprawled'
p3166
I6484
sS'rolls'
p3167
I6485
sS'computer'
p3168
I7111
sS'placing'
p3169
I6489
sS'passanger'
p3170
I6495
sS'himself'
p3171
I6499
sS'dips'
p3172
I6501
sS'pedestals'
p3173
I6502
sS'specialty'
p3174
I6503
sS'properly'
p3175
I6505
sS'newer'
p3176
I6506
sS'russian'
p3177
I6508
sS'dull'
p3178
I6510
sS'peopel'
p3179
I6513
sS'skull'
p3180
I6514
sS'similar'
p3181
I6521
sS'ordered'
p3182
I6524
sS'adults'
p3183
I6525
sS'doesn'
p3184
I6528
sS'cotton'
p3185
I1628
sS'tongs'
p3186
I6536
sS'nad'
p3187
I6539
sS'amounts'
p3188
I6540
sS'nap'
p3189
I6545
sS'electrical'
p3190
I6546
sS'department'
p3191
I6547
sS'aprons'
p3192
I6548
sS'pandas'
p3193
I6549
sS'smiles'
p3194
I6552
sS'draw'
p3195
I6553
sS'spectators'
p3196
I6554
sS'crouching'
p3197
I6556
sS'smiley'
p3198
I6557
sS'lunging'
p3199
I6559
sS'drag'
p3200
I6562
sS'rested'
p3201
I6563
sS'drab'
p3202
I6566
sS'formal'
p3203
I6568
sS'earphones'
p3204
I1822
sS'e'
I6572
sS'zooming'
p3205
I6573
sS'tubes'
p3206
I6135
sS'pamphlets'
p3207
I6576
sS'berries'
p3208
I6581
sS'avoid'
p3209
I6583
sS'underbrush'
p3210
I6587
sS'cheerful'
p3211
I6589
sS'desserts'
p3212
I6590
sS'helped'
p3213
I6591
sS'airliners'
p3214
I6593
sS'go'
p3215
I6594
sS'barbecue'
p3216
I6595
sS'compact'
p3217
I6598
sS'aquarium'
p3218
I6599
sS'wizard'
p3219
I6601
sS'arid'
p3220
I6603
sS'nose'
p3221
I1554
sS'shack'
p3222
I6606
sS'ripened'
p3223
I6607
sS'windsurfer'
p3224
I2930
sS'friendly'
p3225
I6613
sS'kitty'
p3226
I6617
sS'trolleys'
p3227
I6618
sS'wave'
p3228
I6619
sS'wavy'
p3229
I6622
sS'trough'
p3230
I6623
sS'cellular'
p3231
I6624
sS'telling'
p3232
I6625
sS'crowed'
p3233
I6628
sS'exits'
p3234
I6629
sS'snowboards'
p3235
I2225
sS'chains'
p3236
I2991
sS'button'
p3237
I6632
sS'ornately'
p3238
I6633
sS'picker'
p3239
I6635
sS'pretend'
p3240
I6636
sS'picket'
p3241
I6638
sS'stoned'
p3242
I6640
sS'boots'
p3243
I6643
sS'waking'
p3244
I6644
sS'jump'
p3245
I6645
sS'redone'
p3246
I6646
sS'booth'
p3247
I6648
sS'picked'
p3248
I6649
sS'sausage'
p3249
I6653
sS'cupcakes'
p3250
I6654
sS'plays'
p3251
I6655
sS'paintings'
p3252
I6656
sS'wallet'
p3253
I6657
sS'espresso'
p3254
I6660
sS'cell'
p3255
I6661
sS'rotten'
p3256
I6662
sS'poles'
p3257
I6663
sS'pristine'
p3258
I6666
sS'shoreline'
p3259
I6667
sS'stance'
p3260
I6669
sS'commercial'
p3261
I6673
sS'raspberries'
p3262
I6676
sS'focused'
p3263
I6677
sS'pancake'
p3264
I6679
sS'products'
p3265
I6692
sS'wig'
p3266
I6695
sS'examining'
p3267
I6696
sS'nearest'
p3268
I1850
sS'win'
p3269
I6701
sS'sparklers'
p3270
I6702
sS'wii'
p3271
I6703
sS'wih'
p3272
I6704
sS'wit'
p3273
I6705
sS'singing'
p3274
I6709
sS'cloud'
p3275
I6710
sS'strapped'
p3276
I6712
sS'remains'
p3277
I6718
sS'camera'
p3278
I6724
sS'crab'
p3279
I6725
sS'vehicle'
p3280
I6726
sS'stage'
p3281
I6727
sS'reflects'
p3282
I6728
sS'formally'
p3283
I6731
sS'carvings'
p3284
I6733
sS'tangerine'
p3285
I6734
sS'charming'
p3286
I6736
sS'appointed'
p3287
I6741
sS'crosses'
p3288
I6746
sS'arched'
p3289
I6747
sS'salad'
p3290
I2923
sS'ride'
p3291
I958
sS'whiskers'
p3292
I6752
sS'donut'
p3293
I6753
sS'arches'
p3294
I6754
sS'crossed'
p3295
I6756
sS'meet'
p3296
I6758
sS'drops'
p3297
I6759
sS'control'
p3298
I6762
sS'wharf'
p3299
I6764
sS'admires'
p3300
I6766
sS'links'
p3301
I6767
sS'halloween'
p3302
I6769
sS'pulling'
p3303
I6772
sS'hit'
p3304
I6161
sS'skirt'
p3305
I6778
sS'stemmed'
p3306
I2267
sS'picturesque'
p3307
I6781
sS'chevrolet'
p3308
I6782
sS'campers'
p3309
I6783
sS'arrangement'
p3310
I6787
sS'located'
p3311
I6788
sS'bandana'
p3312
I6790
sS'circular'
p3313
I6793
sS'entree'
p3314
I6794
sS'billows'
p3315
I6797
sS'farm'
p3316
I6798
sS'peeling'
p3317
I6799
sS'belongings'
p3318
I6804
sS'cutlery'
p3319
I6808
sS'corral'
p3320
I6809
sS'scoop'
p3321
I6810
sS'bakery'
p3322
I6811
sS'bakers'
p3323
I6814
sS'bathing'
p3324
I6817
sS'propping'
p3325
I6819
sS'basement'
p3326
I6821
sS'including'
p3327
I6823
sS'sundae'
p3328
I1126
sS'cruise'
p3329
I3401
sS'outer'
p3330
I6828
sS'broom'
p3331
I6831
sS'notebooks'
p3332
I6832
sS'him'
p3333
I6170
sS'youngster'
p3334
I6835
sS'sword'
p3335
I1128
sS'surrounds'
p3336
I6845
sS'auto'
p3337
I6846
sS'nokia'
p3338
I6847
sS'functional'
p3339
I6850
sS'pins'
p3340
I5975
sS'catcher'
p3341
I6852
sS'placid'
p3342
I6853
sS'hands'
p3343
I6854
sS'front'
p3344
I6855
sS'dinnerware'
p3345
I6856
sS'brocolli'
p3346
I6858
sS'university'
p3347
I6863
sS'slide'
p3348
I6866
sS'crossing'
p3349
I6869
sS'shaking'
p3350
I6871
sS'upward'
p3351
I6872
sS'ankles'
p3352
I6873
sS'illuminate'
p3353
I6874
sS'attachments'
p3354
I6875
sS'globe'
p3355
I4978
sS'multicolored'
p3356
I4826
sS'sands'
p3357
I6879
sS'measure'
p3358
I6881
sS'separating'
p3359
I6882
sS'sandy'
p3360
I496
sS'entertainment'
p3361
I3786
sS'armor'
p3362
I6890
sS'playground'
p3363
I6895
sS'cause'
p3364
I6899
sS'umbrella'
p3365
I6903
sS'wines'
p3366
I6904
sS'reacts'
p3367
I6907
sS'diagonal'
p3368
I6908
sS'darkly'
p3369
I6909
sS'strap'
p3370
I6910
sS'attending'
p3371
I6911
sS'completely'
p3372
I6912
sS'ridge'
p3373
I6916
sS'princess'
p3374
I6917
sS'farmland'
p3375
I6919
sS'timey'
p3376
I6921
sS'route'
p3377
I6924
sS'florida'
p3378
I6925
sS'timer'
p3379
I6926
sS'times'
p3380
I3975
sS'stride'
p3381
I6928
sS'wading'
p3382
I6930
sS'mad'
p3383
I6935
sS'powerful'
p3384
I6937
sS'suckling'
p3385
I6938
sS'stump'
p3386
I6940
sS'quality'
p3387
I6941
sS'long'
p3388
I6945
sS'dump'
p3389
I6946
sS'privacy'
p3390
I6947
sS'bears'
p3391
I6948
sS'data'
p3392
I1440
sS'wrapper'
p3393
I6952
sS'attack'
p3394
I6955
sS'motorcyle'
p3395
I6956
sS'wrapped'
p3396
I4181
sS'perfectly'
p3397
I6959
sS'tourists'
p3398
I4197
sS'paved'
p3399
I4202
sS'exactly'
p3400
I6965
sS'fuzzy'
p3401
I6972
sS'herself'
p3402
I6974
sS'newlywed'
p3403
I6975
sS'outline'
p3404
I3698
sS'photograph'
p3405
I6977
sS'ben'
p3406
I6978
sS'bed'
p3407
I6980
sS'bee'
p3408
I6981
sS'maybe'
p3409
I6982
sS'providing'
p3410
I6983
sS'exhibit'
p3411
I6985
sS'bagged'
p3412
I6986
sS'lightly'
p3413
I6987
sS'carrots'
p3414
I6990
sS'recessed'
p3415
I6992
sS'squadron'
p3416
I6993
sS'sundown'
p3417
I6994
sS'close'
p3418
I6995
sS'need'
p3419
I6996
sS'border'
p3420
I6997
sS'tale'
p3421
I2456
sS'microphone'
p3422
I7000
sS'sprinkles'
p3423
I7001
sS'cranes'
p3424
I7002
sS'able'
p3425
I7003
sS'purchasing'
p3426
I7005
sS'sprinkled'
p3427
I7007
sS'truck'
p3428
I7009
sS'seasonings'
p3429
I7010
sS'visor'
p3430
I7011
sS'coke'
p3431
I3712
sS'blades'
p3432
I7014
sS'sewing'
p3433
I7019
sS'camper'
p3434
I7020
sS'kickstand'
p3435
I7022
sS'biplane'
p3436
I7023
sS'connected'
p3437
I7024
sS'expired'
p3438
I7025
sS'gallery'
p3439
I7026
sS'cellphone'
p3440
I7027
sS'stereo'
p3441
I7028
sS'urn'
p3442
I4664
sS'upset'
p3443
I7032
sS'scrambled'
p3444
I7034
sS'construction'
p3445
I7035
sS'snapshot'
p3446
I7036
sS'gesture'
p3447
I7037
sS'businessman'
p3448
I7039
sS'emerging'
p3449
I7041
sS'indoor'
p3450
I7045
sS'crate'
p3451
I7046
sS'parked'
p3452
I7049
sS'soldiers'
p3453
I4821
sS'shield'
p3454
I7056
sS'based'
p3455
I7058
sS'unfinished'
p3456
I7059
sS'tire'
p3457
I4833
sS'bases'
p3458
I7066
sS'fuel'
p3459
I2457
sS'2012'
p3460
I3135
sS'skateboards'
p3461
I2679
sS'dodge'
p3462
I7073
sS'crumbling'
p3463
I7076
sS'michigan'
p3464
I7078
sS'sipping'
p3465
I7079
sS'joint'
p3466
I7080
sS'compute'
p3467
I7086
sS'years'
p3468
I7087
sS'gray'
p3469
I7091
sS'trucks'
p3470
I7092
sS'numerous'
p3471
I7094
sS'gras'
p3472
I5516
sS'motorboat'
p3473
I7096
sS'she'
p3474
I3298
sS'contain'
p3475
I7098
sS'uniformed'
p3476
I5077
sS'widow'
p3477
I7101
sS'spotted'
p3478
I7102
sS'solo'
p3479
I7105
sS'hardwood'
p3480
I7106
sS'shake'
p3481
I7107
sS'humans'
p3482
I5137
sS'operates'
p3483
I1245
sS'officials'
p3484
I5152
sS'driveway'
p3485
I5158
sS'operated'
p3486
I7114
sS'marshy'
p3487
I7121
sS'tend'
p3488
I7123
sS'written'
p3489
I5238
sS'flickr'
p3490
I7130
sS'tent'
p3491
I7131
sS'nutritious'
p3492
I7132
sS'munching'
p3493
I7133
sS'buckets'
p3494
I7135
sS'kicking'
p3495
I7050
sS'merry'
p3496
I5318
sS'police'
p3497
I7142
sS'hits'
p3498
I7146
sS'sniff'
p3499
I7147
sS'minutes'
p3500
I7148
sS'aqua'
p3501
I7150
sS'jersey'
p3502
I7153
sS'bricked'
p3503
I7167
sS'polka'
p3504
I7168
sS'nurses'
p3505
I7169
sS'slowly'
p3506
I7170
sS'treat'
p3507
I7171
sS'yak'
p3508
I7172
sS'hauls'
p3509
I3443
sS'shoulders'
p3510
I7176
sS'pic'
p3511
I7177
sS'controlled'
p3512
I7178
sS'both'
p3513
I7179
sS'releasing'
p3514
I7183
sS'c'
I7184
sS'topless'
p3515
I7185
sS'spaniel'
p3516
I7186
sS'controller'
p3517
I7187
sS'oversize'
p3518
I7191
sS'kicks'
p3519
I7192
sS'smoking'
p3520
I5700
sS'cuts'
p3521
I7194
sS'novel'
p3522
I4673
sS'chalk'
p3523
I7200
sS'toothbrushes'
p3524
I7205
sS'examines'
p3525
I7207
sS'surface'
p3526
I7209
sS'sustenance'
p3527
I7210
sS'swinging'
p3528
I7213
sS'lambs'
p3529
I7215
sS'capture'
p3530
I7216
sS'balloon'
p3531
I7220
sS'proceeds'
p3532
I7223
sS'parts'
p3533
I5928
sS'speaker'
p3534
I7226
sS'baord'
p3535
I7227
sS'eclectic'
p3536
I5943
sS'party'
p3537
I7230
sS'fireman'
p3538
I7235
sS'effect'
p3539
I7237
sS'gestures'
p3540
I7241
sS'surfboard'
p3541
I6071
sS'i'
I7249
sS'modeled'
p3542
I6523
sS'well'
p3543
I7251
sS'rink'
p3544
I5107
sS'mixers'
p3545
I7256
sS'awning'
p3546
I7260
sS'advertises'
p3547
I7262
sS'taller'
p3548
I7263
sS'savannah'
p3549
I7267
sS'distant'
p3550
I7270
sS'virtual'
p3551
I7271
sS'parchment'
p3552
I7273
sS'barefooted'
p3553
I7279
sS'extends'
p3554
I7283
sS'riverside'
p3555
I7285
sS'balloons'
p3556
I7286
sS'kick'
p3557
I7287
sS'oar'
p3558
I7288
sS'flashing'
p3559
I7236
sS'ample'
p3560
I7292
sS'crushed'
p3561
I7294
sS'historic'
p3562
I7296
sS'unseen'
p3563
I7298
sS'bottoms'
p3564
I7299
sS'propeller'
p3565
I7300
sS'intersection'
p3566
I7302
sS'prominent'
p3567
I7303
sS'lincoln'
p3568
I7305
sS'necessary'
p3569
I1543
sS'lost'
p3570
I7307
sS'sizes'
p3571
I7308
sS'candy'
p3572
I6426
sS'controllers'
p3573
I2768
sS'page'
p3574
I7315
sS'trucked'
p3575
I7317
sS'shed'
p3576
I7318
sS'glare'
p3577
I7320
sS'library'
p3578
I7327
sS'frisbee'
p3579
I7330
sS'warmer'
p3580
I7331
sS'home'
p3581
I7333
sS'drizzle'
p3582
I7336
sS'competitor'
p3583
I7338
sS'steaming'
p3584
I7340
sS'broad'
p3585
I7341
sS'kettle'
p3586
I7342
sS'cabbages'
p3587
I7343
sS'grinding'
p3588
I7344
sS'coated'
p3589
I7350
sS'medieval'
p3590
I7351
sS'reaching'
p3591
I7352
sS'goatee'
p3592
I7354
sS'cleans'
p3593
I7371
sS'rodeo'
p3594
I7373
sS'toppings'
p3595
I7375
sS'beige'
p3596
I7376
sS'cranberry'
p3597
I7377
sS'puppies'
p3598
I7378
sS'tongue'
p3599
I7379
sS'pastries'
p3600
I7380
sS'contending'
p3601
I6822
sS'raquet'
p3602
I7385
sS'washington'
p3603
I7388
sS'mushrooms'
p3604
I6857
sS'congregate'
p3605
I7391
sS'dug'
p3606
I7393
sS'utility'
p3607
I7395
sS'urinal'
p3608
I7397
sS'additional'
p3609
I7398
sS'pc'
p3610
I7399
sS'museum'
p3611
I7400
sS'inner'
p3612
I7404
sS'dolphins'
p3613
I7406
sS'backhand'
p3614
I7407
sS'cricket'
p3615
I7409
sS'north'
p3616
I7410
sS'triangular'
p3617
I7412
sS'fountains'
p3618
I7413
sS'neutral'
p3619
I7414
sS'strawberries'
p3620
I3528
sS'courts'
p3621
I7416
sS'sprinkling'
p3622
I7418
sS'highest'
p3623
I7040
sS'brick'
p3624
I6271
sS'he'
p3625
I7421
sS'noon'
p3626
I7425
sS'signed'
p3627
I7428
sS'carriage'
p3628
I7430
sS'converted'
p3629
I7431
sS'stories'
p3630
I7129
sS'piece'
p3631
I7434
sS'display'
p3632
I7435
sS'marketplace'
p3633
I7438
sS'bakes'
p3634
I7439
sS'tissues'
p3635
I1701
sS'urns'
p3636
I974
sS'twist'
p3637
I7444
sS'utensils'
p3638
I7445
sS'balcony'
p3639
I7451
sS'hiker'
p3640
I3787
sS'ingredients'
p3641
I6530
sS'fencing'
p3642
I7453
sS'westminster'
p3643
I7456
sS'talkie'
p3644
I7459
sS'monitors'
p3645
I7455
sS'star'
p3646
I7462
sS'stay'
p3647
I7465
sS'refreshments'
p3648
I7466
sS'foil'
p3649
I7467
sS'nintendo'
p3650
I7387
sS'friends'
p3651
I7472
sS'using'
p3652
I7474
sS'samsung'
p3653
I7475
sS'portion'
p3654
I7477
sS'powdery'
p3655
I3
sS'knelt'
p3656
I5
sS'straws'
p3657
I9
sS'asian'
p3658
I11
sS'consists'
p3659
I13
sS'captain'
p3660
I15
sS'whose'
p3661
I18
sS'fronts'
p3662
I19
sS'buddy'
p3663
I21
sS'segments'
p3664
I23
sS'swan'
p3665
I24
sS'remodeled'
p3666
I25
sS'seriously'
p3667
I26
sS'presents'
p3668
I28
sS'teaching'
p3669
I156
sS'saver'
p3670
I3794
sS'updated'
p3671
I33
sS'cruising'
p3672
I35
sS'rescue'
p3673
I36
sS'cemetary'
p3674
I4080
sS'guardrail'
p3675
I38
sS'railways'
p3676
I40
sS'vase'
p3677
I43
sS'vast'
p3678
I48
sS'alpine'
p3679
I49
sS'baking'
p3680
I52
sS'clothed'
p3681
I264
sS'convenience'
p3682
I57
sS'greenish'
p3683
I59
sS'uncooked'
p3684
I60
sS'heading'
p3685
I62
sS'clothes'
p3686
I63
sS'farmhouse'
p3687
I331
sS'force'
p3688
I66
sS'quilt'
p3689
I67
sS'warns'
p3690
I361
sS'japanese'
p3691
I72
sS'across'
p3692
I1476
sS'likely'
p3693
I4154
sS'cactus'
p3694
I78
sS'even'
p3695
I416
sS'wreck'
p3696
I82
sS'meals'
p3697
I2856
sS'bikini'
p3698
I6302
sS'asia'
p3699
I85
sS'lights'
p3700
I87
sS'foodstuffs'
p3701
I88
sS'new'
p3702
I494
sS'tips'
p3703
I90
sS'ever'
p3704
I91
sS'helmets'
p3705
I93
sS'pancakes'
p3706
I96
sS'wakeboard'
p3707
I537
sS'men'
p3708
I98
sS'disposable'
p3709
I99
sS'active'
p3710
I2799
sS'cardboard'
p3711
I104
sS'dry'
p3712
I105
sS'tapes'
p3713
I107
sS'rests'
p3714
I108
sS'piercing'
p3715
I111
sS'taped'
p3716
I112
sS'parasailer'
p3717
I114
sS"someone's"
p3718
I116
sS'rafting'
p3719
I117
sS'heeled'
p3720
I119
sS'besides'
p3721
I5839
sS'slicer'
p3722
I94
sS'slices'
p3723
I122
sS'sliced'
p3724
I735
sS'busses'
p3725
I125
sS'guests'
p3726
I126
sS'jackets'
p3727
I127
sS'handlebar'
p3728
I129
sS'landscape'
p3729
I774
sS'army'
p3730
I3867
sS'watering'
p3731
I134
sS'arms'
p3732
I135
sS'overhead'
p3733
I829
sS'calm'
p3734
I139
sS'type'
p3735
I142
sS'tell'
p3736
I143
sS'calf'
p3737
I144
sS'peeping'
p3738
I147
sS'composite'
p3739
I1280
sS'wars'
p3740
I151
sS'warm'
p3741
I153
sS'adult'
p3742
I154
sS'aligned'
p3743
I946
sS'verdant'
p3744
I3816
sS'room'
p3745
I161
sS'kraut'
p3746
I162
sS'trots'
p3747
I163
sS'setup'
p3748
I164
sS'roof'
p3749
I167
sS'movies'
p3750
I168
sS'obstacle'
p3751
I170
sS'foliage'
p3752
I171
sS'root'
p3753
I174
sS'vodka'
p3754
I1046
sS'squirting'
p3755
I178
sS'give'
p3756
I180
sS'dividers'
p3757
I1070
sS'laughs'
p3758
I1075
sS'honey'
p3759
I183
sS'foods'
p3760
I1096
sS'sideline'
p3761
I189
sS'shelving'
p3762
I190
sS'amazing'
p3763
I1194
sS'butting'
p3764
I200
sS'scooters'
p3765
I201
sS'massive'
p3766
I1283
sS'briefcase'
p3767
I204
sS'undergoing'
p3768
I1241
sS'waterfront'
p3769
I209
sS'president'
p3770
I210
sS'bushes'
p3771
I6009
sS'waterside'
p3772
I2760
sS'purchase'
p3773
I1321
sS'attempt'
p3774
I1328
sS'third'
p3775
I216
sS'descends'
p3776
I218
sS'owls'
p3777
I2439
sS'checkerboard'
p3778
I220
sS'goodbye'
p3779
I221
sS'athletes'
p3780
I224
sS'deco'
p3781
I228
sS'deck'
p3782
I229
sS'keyboard'
p3783
I232
sS'windshield'
p3784
I234
sS'before'
p3785
I237
sS'chihuahua'
p3786
I239
sS'personal'
p3787
I242
sS'soaking'
p3788
I2482
sS'crew'
p3789
I246
sS'better'
p3790
I247
sS'differently'
p3791
I249
sS'combination'
p3792
I253
sS'glazed'
p3793
I258
sS'meat'
p3794
I262
sS'panini'
p3795
I1758
sS'airfrance'
p3796
I266
sS'leaned'
p3797
I267
sS'roast'
p3798
I1765
sS'went'
p3799
I269
sS'higher'
p3800
I6331
sS'side'
p3801
I271
sS'bone'
p3802
I272
sS'mean'
p3803
I273
sS'calmly'
p3804
I274
sS'adobe'
p3805
I275
sS'enthusiasts'
p3806
I277
sS'navy'
p3807
I283
sS'dawn'
p3808
I1884
sS'sking'
p3809
I286
sS'enclosure'
p3810
I2462
sS'velvet'
p3811
I290
sS'content'
p3812
I1940
sS'reader'
p3813
I295
sS'surprise'
p3814
I296
sS'kiwis'
p3815
I297
sS'grease'
p3816
I300
sS'turning'
p3817
I301
sS'ascending'
p3818
I303
sS'cement'
p3819
I6340
sS'hoodie'
p3820
I2049
sS'greasy'
p3821
I310
sS'aisle'
p3822
I311
sS'shaggy'
p3823
I2088
sS'starts'
p3824
I316
sS'messages'
p3825
I318
sS'isn'
p3826
I323
sS'firetrucks'
p3827
I324
sS'arrived'
p3828
I3106
sS'boarders'
p3829
I326
sS'user'
p3830
I6345
sS'features'
p3831
I330
sS'grade'
p3832
I332
sS'hoop'
p3833
I333
sS'unlit'
p3834
I2213
sS'walkers'
p3835
I336
sS'hook'
p3836
I235
sS'featured'
p3837
I2223
sS'floors'
p3838
I340
sS'comforter'
p3839
I341
sS'ditch'
p3840
I342
sS'hoof'
p3841
I374
sS'plugs'
p3842
I6347
sS'hood'
p3843
I345
sS'hydrant'
p3844
I2279
sS'spinach'
p3845
I5291
sS'girls'
p3846
I352
sS'twisted'
p3847
I1590
sS'propellor'
p3848
I7190
sS'boating'
p3849
I2306
sS'hollywood'
p3850
I359
sS'bouncing'
p3851
I365
sS'gym'
p3852
I2369
sS'streetlight'
p3853
I1316
sS'somewhat'
p3854
I369
sS'stocking'
p3855
I370
sS'boarding'
p3856
I371
sS'distance'
p3857
I372
sS'structures'
p3858
I375
sS'preparation'
p3859
I145
sS'silly'
p3860
I381
sS'knights'
p3861
I383
sS'mini'
p3862
I384
sS'sees'
p3863
I385
sS'palace'
p3864
I386
sS'chickens'
p3865
I7018
sS'modern'
p3866
I389
sS'ginger'
p3867
I391
sS'seed'
p3868
I392
sS'seen'
p3869
I394
sS'seem'
p3870
I395
sS'mint'
p3871
I396
sS'tells'
p3872
I397
sS'stoplights'
p3873
I2628
sS'boaters'
p3874
I403
sS'panda'
p3875
I2338
sS'chest'
p3876
I407
sS'chess'
p3877
I409
sS'panties'
p3878
I413
sS'davidson'
p3879
I414
sS'buggies'
p3880
I418
sS'llamas'
p3881
I420
sS'mashed'
p3882
I1462
sS'memorabilia'
p3883
I5495
sS'mario'
p3884
I423
sS'regular'
p3885
I424
sS'assisting'
p3886
I7337
sS'don'
p3887
I433
sS'observation'
p3888
I434
sS'consumed'
p3889
I437
sS'nighttime'
p3890
I439
sS'dog'
p3891
I440
sS'competitors'
p3892
I441
sS'points'
p3893
I442
sS'pointy'
p3894
I445
sS'colander'
p3895
I6203
sS'doves'
p3896
I2872
sS'visitor'
p3897
I453
sS'ending'
p3898
I455
sS'attempts'
p3899
I458
sS'stepping'
p3900
I460
sS'judges'
p3901
I6072
sS'folded'
p3902
I471
sS'sugar'
p3903
I4686
sS'celery'
p3904
I474
sS'folks'
p3905
I478
sS'folder'
p3906
I480
sS'wearing'
p3907
I482
sS'tiles'
p3908
I484
sS'colorful'
p3909
I485
sS'stop'
p3910
I488
sS'appetizer'
p3911
I4194
sS'watermelon'
p3912
I491
sS'tiled'
p3913
I492
sS'pallets'
p3914
I3115
sS'bat'
p3915
I497
sS'bar'
p3916
I498
sS'fields'
p3917
I3161
sS'croutons'
p3918
I3878
sS'bag'
p3919
I506
sS'bad'
p3920
I507
sS'discs'
p3921
I508
sS'architecture'
p3922
I509
sS'grilled'
p3923
I3201
sS'ears'
p3924
I513
sS'lettering'
p3925
I514
sS'fascinating'
p3926
I3244
sS'fluffy'
p3927
I516
sS'testing'
p3928
I517
sS'zones'
p3929
I518
sS'subject'
p3930
I523
sS'00'
p3931
I524
sS'scrap'
p3932
I527
sS'sail'
p3933
I528
sS'shaved'
p3934
I530
sS'artificial'
p3935
I531
sS'wetsuit'
p3936
I533
sS"there's"
p3937
I6077
sS'olympics'
p3938
I535
sS'pets'
p3939
I536
sS'sorts'
p3940
I539
sS'lazy'
p3941
I544
sS'wears'
p3942
I546
sS'were'
p3943
I551
sS'lotion'
p3944
I553
sS'modeling'
p3945
I557
sS'picking'
p3946
I558
sS'maneuvers'
p3947
I560
sS'against'
p3948
I564
sS'scuba'
p3949
I5319
sS'protection'
p3950
I3888
sS'peddling'
p3951
I567
sS'studio'
p3952
I3889
sS'winnie'
p3953
I573
sS'cobble'
p3954
I574
sS'loader'
p3955
I3600
sS'hygiene'
p3956
I3611
sS'lanterns'
p3957
I579
sS'springs'
p3958
I581
sS'tint'
p3959
I3659
sS'tins'
p3960
I587
sS'puts'
p3961
I588
sS'dusting'
p3962
I591
sS'patrolling'
p3963
I3681
sS'three'
p3964
I593
sS'tiny'
p3965
I594
sS'interest'
p3966
I3708
sS'basic'
p3967
I597
sS'basil'
p3968
I598
sS'basin'
p3969
I3721
sS'lovely'
p3970
I600
sS'threw'
p3971
I3740
sS'website'
p3972
I4690
sS'mushroom'
p3973
I608
sS'greyhound'
p3974
I1355
sS'sunshine'
p3975
I612
sS'decrepit'
p3976
I615
sS'tank'
p3977
I619
sS'reddish'
p3978
I620
sS'ugly'
p3979
I623
sS'near'
p3980
I624
sS'melted'
p3981
I625
sS'neat'
p3982
I626
sS'aeroplane'
p3983
I628
sS'balance'
p3984
I629
sS'anchor'
p3985
I3904
sS'chilling'
p3986
I3906
sS'seven'
p3987
I634
sS'cane'
p3988
I635
sS'metropolitan'
p3989
I636
sS'is'
p3990
I638
sS'sushi'
p3991
I639
sS'it'
p3992
I640
sS'ii'
p3993
I641
sS'clinging'
p3994
I3519
sS'in'
p3995
I646
sS'seattle'
p3996
I648
sS'mouse'
p3997
I649
sS'id'
p3998
I650
sS'if'
p3999
I651
sS'grown'
p4000
I652
sS'bottles'
p4001
I654
sS'occupied'
p4002
I6891
sS'make'
p4003
I657
sS'polaroid'
p4004
I659
sS'bottled'
p4005
I661
sS'belly'
p4006
I4050
sS'vegetable'
p4007
I664
sS'filtered'
p4008
I665
sS'shoveling'
p4009
I666
sS'sidelines'
p4010
I667
sS'grows'
p4011
I5020
sS'bells'
p4012
I4083
sS'bearded'
p4013
I671
sS'scarfs'
p4014
I673
sS'kit'
p4015
I675
sS'delight'
p4016
I676
sS'renaissance'
p4017
I3873
sS'waterfall'
p4018
I678
sS'garlic'
p4019
I679
sS'kid'
p4020
I684
sS'butter'
p4021
I685
sS'failing'
p4022
I689
sS'smokes'
p4023
I690
sS'bedspread'
p4024
I5266
sS'practices'
p4025
I693
sS'flops'
p4026
I4248
sS'left'
p4027
I697
sS'just'
p4028
I4275
sS'sporting'
p4029
I701
sS'fighters'
p4030
I703
sS'human'
p4031
I704
sS'tattooed'
p4032
I706
sS'yet'
p4033
I4326
sS'sunflower'
p4034
I711
sS'character'
p4035
I4187
sS'save'
p4036
I5340
sS'trimming'
p4037
I720
sS'sailors'
p4038
I722
sS'creatively'
p4039
I2638
sS'background'
p4040
I3377
sS'forested'
p4041
I4495
sS'depicts'
p4042
I5921
sS'vanity'
p4043
I733
sS'shoulder'
p4044
I734
sS'nude'
p4045
I737
sS'performing'
p4046
I4548
sS'manual'
p4047
I739
sS'zombies'
p4048
I743
sS'prepping'
p4049
I4594
sS'deal'
p4050
I4623
sS'elderly'
p4051
I753
sS'platters'
p4052
I754
sS'vaulted'
p4053
I755
sS'dear'
p4054
I4675
sS'maneuvering'
p4055
I760
sS'dense'
p4056
I761
sS'pail'
p4057
I2827
sS'carts'
p4058
I765
sS'skateboarded'
p4059
I768
sS'microwave'
p4060
I769
sS'onlooking'
p4061
I4756
sS'skateboarder'
p4062
I775
sS'bold'
p4063
I778
sS'dunkin'
p4064
I779
sS'spewing'
p4065
I781
sS'popular'
p4066
I6416
sS'firemen'
p4067
I785
sS'keeper'
p4068
I4855
sS'super'
p4069
I791
sS'yelling'
p4070
I4374
sS'ribs'
p4071
I4914
sS'magazine'
p4072
I798
sS'crucifix'
p4073
I1282
sS'selfie'
p4074
I807
sS'wintery'
p4075
I808
sS'rearview'
p4076
I809
sS'down'
p4077
I811
sS'lies'
p4078
I812
sS'carving'
p4079
I815
sS'cones'
p4080
I6418
sS'weathered'
p4081
I822
sS'tennis'
p4082
I826
sS'fork'
p4083
I835
sS'form'
p4084
I836
sS'batman'
p4085
I5185
sS'fireworks'
p4086
I839
sS'landing'
p4087
I841
sS'ford'
p4088
I842
sS'marinara'
p4089
I5205
sS'penned'
p4090
I844
sS'diaper'
p4091
I845
sS'fort'
p4092
I5245
sS'lilies'
p4093
I4699
sS'pavilion'
p4094
I850
sS'hikers'
p4095
I4325
sS'attached'
p4096
I854
sS'blueberry'
p4097
I857
sS'whiskey'
p4098
I858
sS'tangerines'
p4099
I861
sS'stages'
p4100
I5306
sS'sticks'
p4101
I868
sS'classic'
p4102
I869
sS'toss'
p4103
I870
sS'covers'
p4104
I873
sS'sticky'
p4105
I874
sS'fashioned'
p4106
I875
sS'muffins'
p4107
I6386
sS'floating'
p4108
I879
sS'cushioned'
p4109
I880
sS'shit'
p4110
I881
sS'marking'
p4111
I884
sS'leafless'
p4112
I889
sS'tossing'
p4113
I890
sS'handed'
p4114
I5463
sS'digital'
p4115
I895
sS'warehouse'
p4116
I896
sS'ribbons'
p4117
I5511
sS'sling'
p4118
I900
sS'handicap'
p4119
I5537
sS'felt'
p4120
I903
sS'diet'
p4121
I904
sS'grassland'
p4122
I906
sS'fell'
p4123
I907
sS'pizzas'
p4124
I912
sS'uneaten'
p4125
I5601
sS'jones'
p4126
I914
sS'happening'
p4127
I916
sS'potato'
p4128
I918
sS'daily'
p4129
I920
sS'jacket'
p4130
I921
sS'gorilla'
p4131
I922
sS'teeth'
p4132
I5660
sS'restored'
p4133
I928
sS'themed'
p4134
I932
sS'skis'
p4135
I933
sS'skii'
p4136
I936
sS'mild'
p4137
I5733
sS'mile'
p4138
I5736
sS'skin'
p4139
I2648
sS'mill'
p4140
I2087
sS'bomber'
p4141
I943
sS'milk'
p4142
I5756
sS'anticipation'
p4143
I5770
sS'yummy'
p4144
I947
sS'outdated'
p4145
I3945
sS'father'
p4146
I950
sS'disgusting'
p4147
I951
sS'marks'
p4148
I956
sS'shoot'
p4149
I3824
sS'smartphone'
p4150
I961
sS'string'
p4151
I3603
sS'tacos'
p4152
I5887
sS'word'
p4153
I3950
sS'stting'
p4154
I969
sS'dim'
p4155
I970
sS'limes'
p4156
I1210
sS'did'
p4157
I5956
sS'dig'
p4158
I975
sS'bikers'
p4159
I5150
sS'item'
p4160
I979
sS'brownish'
p4161
I980
sS'dip'
p4162
I985
sS'round'
p4163
I986
sS'shoe'
p4164
I987
sS'olympic'
p4165
I4430
sS'seasoning'
p4166
I5599
sS'run'
p4167
I6441
sS'skiiers'
p4168
I998
sS'adds'
p4169
I1000
sS'vandalized'
p4170
I1004
sS'international'
p4171
I1006
sS'gazebo'
p4172
I5725
sS'jumps'
p4173
I6445
sS'filled'
p4174
I1011
sS'transportation'
p4175
I5354
sS'makeup'
p4176
I1016
sS'french'
p4177
I1017
sS'tusked'
p4178
I1019
sS'frosting'
p4179
I6256
sS'stem'
p4180
I6448
sS'crackers'
p4181
I3961
sS'wait'
p4182
I1025
sS'box'
p4183
I1026
sS'boy'
p4184
I1499
sS'cuckoo'
p4185
I1029
sS'canadian'
p4186
I1030
sS'shift'
p4187
I1032
sS'bot'
p4188
I1033
sS'bow'
p4189
I1034
sS'bob'
p4190
I1037
sS'bruised'
p4191
I1039
sS'teenage'
p4192
I1041
sS'kayak'
p4193
I1048
sS'lamppost'
p4194
I1049
sS'hotels'
p4195
I1053
sS'lockers'
p4196
I1058
sS'thre'
p4197
I1061
sS'dude'
p4198
I1062
sS'france'
p4199
I1064
sS'vineyard'
p4200
I1065
sS'creamy'
p4201
I1066
sS'thru'
p4202
I1069
sS'sharing'
p4203
I1073
sS'obelisk'
p4204
I1074
sS'downtown'
p4205
I1080
sS'tandem'
p4206
I1082
sS'olive'
p4207
I1085
sS'blinds'
p4208
I5125
sS'bushels'
p4209
I6611
sS'fly'
p4210
I1088
sS'walled'
p4211
I6616
sS'thermos'
p4212
I1090
sS'tokyo'
p4213
I1092
sS'avoiding'
p4214
I1093
sS'soul'
p4215
I6951
sS'soup'
p4216
I1097
sS'sour'
p4217
I1098
sS'drags'
p4218
I1099
sS'growing'
p4219
I5952
sS'making'
p4220
I1101
sS'arrive'
p4221
I6683
sS'bites'
p4222
I1103
sS'claim'
p4223
I1104
sS'crazy'
p4224
I1105
sS'confused'
p4225
I1739
sS'sample'
p4226
I6744
sS'drawer'
p4227
I6749
sS'battered'
p4228
I1113
sS'write'
p4229
I6827
sS'spanning'
p4230
I1116
sS'pink'
p4231
I1119
sS'rays'
p4232
I1120
sS'necklaces'
p4233
I6815
sS'suitcases'
p4234
I1124
sS'ping'
p4235
I6820
sS'pine'
p4236
I1005
sS'skater'
p4237
I4933
sS'skates'
p4238
I4947
sS'tile'
p4239
I1130
sS'pathway'
p4240
I1132
sS'loaves'
p4241
I1133
sS'map'
p4242
I1134
sS'staying'
p4243
I1135
sS'designer'
p4244
I1136
sS'mat'
p4245
I1138
sS'may'
p4246
I1139
sS'accessory'
p4247
I1143
sS'mac'
p4248
I1145
sS'designed'
p4249
I1146
sS'tablecloth'
p4250
I1149
sS'guys'
p4251
I1679
sS'grow'
p4252
I1151
sS'man'
p4253
I1153
sS'neck'
p4254
I4157
sS'6th'
p4255
I1157
sS'q'
I1161
sS'switch'
p4256
I7004
sS'jail'
p4257
I3903
sS'african'
p4258
I1165
sS'basket'
p4259
I1166
sS'tall'
p4260
I1167
sS'talk'
p4261
I1169
sS'framing'
p4262
I6627
sS'cute'
p4263
I1171
sS'shoes'
p4264
I1173
sS'entryway'
p4265
I1175
sS'pointed'
p4266
I7072
sS'terrace'
p4267
I1182
sS'pitch'
p4268
I1183
sS'marshmallows'
p4269
I1184
sS'group'
p4270
I4093
sS'monitor'
p4271
I7145
sS'smoothie'
p4272
I1190
sS'interesting'
p4273
I1191
sS'maid'
p4274
I7165
sS'mail'
p4275
I3914
sS'main'
p4276
I1198
sS'texas'
p4277
I1199
sS'tucked'
p4278
I1201
sS'views'
p4279
I1202
sS'lunch'
p4280
I7248
sS'touching'
p4281
I1205
sS'markings'
p4282
I1206
sS'mismatched'
p4283
I1207
sS'safari'
p4284
I1208
sS'beach'
p4285
I1215
sS'artist'
p4286
I1216
sS'arrows'
p4287
I1217
sS'rock'
p4288
I7356
sS'showcasing'
p4289
I1221
sS'elephants'
p4290
I1227
sS'signage'
p4291
I1231
sS'girl'
p4292
I1232
sS'description'
p4293
I3998
sS'canada'
p4294
I1236
sS'living'
p4295
I1237
sS'jackson'
p4296
I7470
sS'3rd'
p4297
I1242
sS'dutch'
p4298
I7021
sS'pizzeria'
p4299
I1251
sS'after'
p4300
I7361
sS'monster'
p4301
I1256
sS'sideways'
p4302
I1257
sS'pumping'
p4303
I1258
sS'walnuts'
p4304
I3178
sS'bringing'
p4305
I1260
sS'california'
p4306
I1263
sS'vinyl'
p4307
I1264
sS'ajar'
p4308
I1266
sS'headband'
p4309
I1267
sS'underwear'
p4310
I6356
sS'carnival'
p4311
I4888
sS'waiter'
p4312
I6221
sS'headphones'
p4313
I177
sS'thing'
p4314
I191
sS'funky'
p4315
I6898
sS'mesh'
p4316
I5427
sS'pepperoni'
p4317
I2765
sS'pleasant'
p4318
I1284
sS'think'
p4319
I1285
sS'first'
p4320
I1286
sS'exotic'
p4321
I1287
sS'cheese'
p4322
I1288
sS'dwelling'
p4323
I1289
sS'lone'
p4324
I6490
sS'crib'
p4325
I1292
sS'amidst'
p4326
I6492
sS'suspended'
p4327
I1296
sS'carry'
p4328
I1298
sS'cheesy'
p4329
I1302
sS'milling'
p4330
I1486
sS'little'
p4331
I1304
sS'murky'
p4332
I1308
sS'anyone'
p4333
I1310
sS'plains'
p4334
I6378
sS'speaking'
p4335
I382
sS'eyes'
p4336
I1320
sS'eyed'
p4337
I1326
sS'butt'
p4338
I454
sS'seat'
p4339
I1489
sS'11'
p4340
I1331
sS'10'
p4341
I1332
sS'13'
p4342
I1333
sS'12'
p4343
I1334
sS'15'
p4344
I1335
sS'14'
p4345
I1336
sS'sailing'
p4346
I1337
sS'18'
p4347
I1338
sS'victorian'
p4348
I5413
sS'protected'
p4349
I683
sS'knives'
p4350
I1343
sS'amid'
p4351
I4015
sS'gigantic'
p4352
I1346
sS'strolls'
p4353
I5083
sS'tractor'
p4354
I1349
sS'gathering'
p4355
I1351
sS'lick'
p4356
I1352
sS'dollop'
p4357
I1353
sS'dash'
p4358
I1359
sS'winding'
p4359
I1360
sS'pastry'
p4360
I633
sS'monochrome'
p4361
I1363
sS'mitts'
p4362
I4102
sS'speakers'
p4363
I1366
sS'hooded'
p4364
I1367
sS'efficient'
p4365
I1370
sS'shocked'
p4366
I1373
sS'potential'
p4367
I1376
sS'interior'
p4368
I1379
sS'performance'
p4369
I728
sS'glassware'
p4370
I1381
sS'switching'
p4371
I740
sS'channel'
p4372
I1384
sS'ultimate'
p4373
I6337
sS'wilted'
p4374
I1387
sS'skinned'
p4375
I757
sS'straightening'
p4376
I4499
sS'theatre'
p4377
I1391
sS'normal'
p4378
I766
sS'track'
p4379
I1393
sS'cheesecake'
p4380
I1394
sS'paid'
p4381
I786
sS'sheets'
p4382
I1399
sS'pair'
p4383
I1401
sS'tugging'
p4384
I1403
sS'queens'
p4385
I831
sS'beachfront'
p4386
I1408
sS'fills'
p4387
I853
sS'napkin'
p4388
I1412
sS'stockings'
p4389
I1419
sS'shop'
p4390
I1423
sS'shot'
p4391
I1425
sS'show'
p4392
I1427
sS'filed'
p4393
I6507
sS'contemporary'
p4394
I1430
sS'corned'
p4395
I1431
sS'bedside'
p4396
I1435
sS'drawings'
p4397
I1436
sS'corner'
p4398
I1437
sS'curled'
p4399
I1441
sS'enthusiast'
p4400
I1013
sS'dice'
p4401
I1446
sS'stormy'
p4402
I1447
sS'cheeseburger'
p4403
I1448
sS'pump'
p4404
I1449
sS'black'
p4405
I1453
sS'makeshift'
p4406
I6324
sS'plums'
p4407
I1457
sS'plump'
p4408
I1459
sS'hippo'
p4409
I1460
sS'get'
p4410
I5987
sS'designated'
p4411
I1140
sS'spraying'
p4412
I1466
sS'nearly'
p4413
I1170
sS'enjoys'
p4414
I1470
sS'frolicking'
p4415
I1472
sS'keyboards'
p4416
I270
sS'median'
p4417
I1474
sS'yield'
p4418
I1475
sS'morning'
p4419
I1233
sS'miles'
p4420
I1247
sS'london'
p4421
I4035
sS'finishing'
p4422
I1482
sS'flamingos'
p4423
I1269
sS'crumbs'
p4424
I4416
sS'unbaked'
p4425
I5884
sS'blurred'
p4426
I1329
sS'seal'
p4427
I1492
sS'calendar'
p4428
I1493
sS'wonder'
p4429
I1495
sS'camping'
p4430
I1497
sS'ornament'
p4431
I1500
sS'label'
p4432
I1439
sS'behind'
p4433
I1504
sS'chews'
p4434
I1468
sS'geometric'
p4435
I7208
sS'reading'
p4436
I1508
sS'checks'
p4437
I4313
sS'oversized'
p4438
I1510
sS'tux'
p4439
I1512
sS'parent'
p4440
I1496
sS'tub'
p4441
I1525
sS'tug'
p4442
I1526
sS'rugby'
p4443
I1528
sS'tuck'
p4444
I1529
sS'restroom'
p4445
I6411
sS'tour'
p4446
I1624
sS'patrons'
p4447
I1533
sS'dated'
p4448
I1632
sS'spare'
p4449
I1536
sS'holders'
p4450
I1648
sS'among'
p4451
I1541
sS'stretches'
p4452
I1542
sS'cabinetry'
p4453
I1545
sS'maintained'
p4454
I1721
sS'stretched'
p4455
I1548
sS'pacifier'
p4456
I1549
sS'mare'
p4457
I1767
sS'unusual'
p4458
I1557
sS'feeders'
p4459
I1564
sS'attaching'
p4460
I1811
sS'workshop'
p4461
I1566
sS'shakers'
p4462
I1569
sS'borders'
p4463
I1571
sS'mary'
p4464
I1572
sS'shopping'
p4465
I7093
sS'graveyard'
p4466
I1575
sS'offered'
p4467
I1576
sS'squash'
p4468
I1577
sS'laptops'
p4469
I1913
sS'dramatic'
p4470
I4375
sS'wake'
p4471
I1582
sS'bmw'
p4472
I1583
sS'captivity'
p4473
I1586
sS'sound'
p4474
I1588
sS'stacked'
p4475
I1589
sS'coca'
p4476
I1594
sS'many'
p4477
I1595
sS'investigating'
p4478
I1597
sS'cock'
p4479
I1599
sS'bathe'
p4480
I1601
sS'bathrooms'
p4481
I1602
sS'rubbing'
p4482
I2076
sS'coffee'
p4483
I4052
sS'sleeping'
p4484
I1609
sS'cluster'
p4485
I1610
sS'pressing'
p4486
I1611
sS'ferns'
p4487
I1612
sS'protein'
p4488
I1613
sS'bags'
p4489
I1617
sS'different'
p4490
I1618
sS'pat'
p4491
I1620
sS'doctor'
p4492
I1621
sS'pay'
p4493
I1622
sS'woodland'
p4494
I2177
sS'multicolor'
p4495
I3412
sS'lava'
p4496
I1625
sS'speech'
p4497
I2201
sS'struggling'
p4498
I1627
sS'halfpipe'
p4499
I6535
sS'pan'
p4500
I1631
sS'nunchuck'
p4501
I1634
sS'oil'
p4502
I428
sS'commode'
p4503
I1639
sS'seagulls'
p4504
I1640
sS'companion'
p4505
I1641
sS'running'
p4506
I1642
sS'stairwell'
p4507
I2292
sS'climbing'
p4508
I1646
sS'totally'
p4509
I1647
sS'drain'
p4510
I1652
sS'largely'
p4511
I1654
sS'spoonful'
p4512
I1658
sS'bicyclists'
p4513
I1660
sS'bottle'
p4514
I1661
sS'bumping'
p4515
I1665
sS'amazed'
p4516
I1666
sS'gates'
p4517
I282
sS'outdoor'
p4518
I2736
sS'money'
p4519
I1671
sS'griddle'
p4520
I1674
sS'gated'
p4521
I1676
sS'flavor'
p4522
I1677
sS'dipped'
p4523
I1681
sS'nick'
p4524
I6544
sS'mcdonald'
p4525
I1684
sS'beagle'
p4526
I1686
sS'pile'
p4527
I1688
sS'4'
I1689
sS'grating'
p4528
I1690
sS'elaborately'
p4529
I1692
sS'grip'
p4530
I1695
sS'docks'
p4531
I1699
sS'mop'
p4532
I1700
sS'grid'
p4533
I2910
sS'mom'
p4534
I1708
sS'railroad'
p4535
I1711
sS'aiming'
p4536
I2658
sS'blankets'
p4537
I1713
sS'rocky'
p4538
I1715
sS'vertically'
p4539
I1717
sS'vending'
p4540
I1719
sS'serves'
p4541
I1722
sS'lightning'
p4542
I1723
sS'facing'
p4543
I2717
sS'audience'
p4544
I1725
sS'either'
p4545
I1726
sS'served'
p4546
I2739
sS'buidling'
p4547
I1733
sS'sneaker'
p4548
I2762
sS'doll'
p4549
I1737
sS'images'
p4550
I1745
sS'cabs'
p4551
I3838
sS'ascent'
p4552
I1748
sS'matching'
p4553
I2836
sS'gross'
p4554
I1750
sS'outs'
p4555
I1751
sS'drenched'
p4556
I1753
sS'overly'
p4557
I1755
sS'expressing'
p4558
I1760
sS'linoleum'
p4559
I1761
sS'knife'
p4560
I1763
sS'ovens'
p4561
I1764
sS'airways'
p4562
I2948
sS'unopened'
p4563
I1770
sS'broken'
p4564
I1772
sS'drums'
p4565
I1773
sS'roaming'
p4566
I1775
sS'crafting'
p4567
I3014
sS'stations'
p4568
I3031
sS'island'
p4569
I3037
sS'insect'
p4570
I1783
sS'mixer'
p4571
I3151
sS'mixes'
p4572
I3942
sS'demonic'
p4573
I1786
sS'airline'
p4574
I4596
sS'pockets'
p4575
I1788
sS'mounting'
p4576
I2786
sS'mixed'
p4577
I1790
sS'road'
p4578
I3107
sS'quietly'
p4579
I1794
sS'lands'
p4580
I1795
sS'whites'
p4581
I1799
sS'spreading'
p4582
I3134
sS'skilled'
p4583
I1801
sS'airlines'
p4584
I1804
sS'harness'
p4585
I1805
sS'strip'
p4586
I1807
sS'mark'
p4587
I1809
sS'paraphernalia'
p4588
I1814
sS'downed'
p4589
I1816
sS'lions'
p4590
I1821
sS'structure'
p4591
I6570
sS'pretends'
p4592
I1828
sS'trey'
p4593
I379
sS'spicy'
p4594
I1829
sS'enough'
p4595
I1832
sS'buggy'
p4596
I1834
sS'strikes'
p4597
I1835
sS'wiping'
p4598
I2186
sS'bookstore'
p4599
I1838
sS'walkway'
p4600
I1839
sS'spice'
p4601
I3370
sS'arranged'
p4602
I1849
sS'strawberry'
p4603
I1851
sS'arranges'
p4604
I1853
sS'peeking'
p4605
I1854
sS'netting'
p4606
I1856
sS'suitcase'
p4607
I1857
sS'affection'
p4608
I3444
sS'juggling'
p4609
I4095
sS'videos'
p4610
I1866
sS'rapids'
p4611
I1867
sS'deer'
p4612
I3476
sS'deep'
p4613
I3462
sS'fellow'
p4614
I2474
sS'examine'
p4615
I3495
sS'file'
p4616
I1877
sS'girlfriend'
p4617
I1879
sS'hound'
p4618
I1882
sS'cables'
p4619
I1883
sS'film'
p4620
I3524
sS'fill'
p4621
I1812
sS'pensive'
p4622
I1889
sS'personnel'
p4623
I1890
sS'drivers'
p4624
I3841
sS'hybrid'
p4625
I1892
sS'field'
p4626
I3581
sS'rollerblading'
p4627
I1897
sS'outfield'
p4628
I3620
sS'lapel'
p4629
I1902
sS'shelter'
p4630
I1904
sS'decorates'
p4631
I1905
sS'important'
p4632
I1909
sS'decorated'
p4633
I1910
sS'awkwardly'
p4634
I1911
sS'remote'
p4635
I1914
sS'unload'
p4636
I1915
sS'casts'
p4637
I1916
sS'sewer'
p4638
I3769
sS'u'
I3772
sS'resembles'
p4639
I1924
sS'husky'
p4640
I1925
sS'starting'
p4641
I1926
sS'growling'
p4642
I1928
sS'hooked'
p4643
I4880
sS'suburban'
p4644
I1931
sS'disassembled'
p4645
I3821
sS'trainers'
p4646
I4106
sS'talks'
p4647
I1937
sS'fixtures'
p4648
I1938
sS'children'
p4649
I3872
sS'shattered'
p4650
I3970
sS'former'
p4651
I1946
sS'shredding'
p4652
I1949
sS'those'
p4653
I1951
sS'hooks'
p4654
I6588
sS'enjoying'
p4655
I1955
sS'turnips'
p4656
I1959
sS'returning'
p4657
I1961
sS'puffy'
p4658
I1963
sS'scout'
p4659
I1965
sS'fall'
p4660
I1966
sS'surfboarder'
p4661
I1967
sS'ramen'
p4662
I1968
sS'newly'
p4663
I1969
sS'washing'
p4664
I1972
sS'mothers'
p4665
I1974
sS'arts'
p4666
I1975
sS'intricately'
p4667
I1978
sS'20th'
p4668
I1986
sS'knifes'
p4669
I4146
sS'portable'
p4670
I1989
sS'grabs'
p4671
I1990
sS'knitted'
p4672
I4188
sS'burger'
p4673
I4192
sS'clutches'
p4674
I1993
sS'perspective'
p4675
I4204
sS'further'
p4676
I1997
sS'ribbon'
p4677
I1999
sS'creatures'
p4678
I2000
sS'propellors'
p4679
I2001
sS'dial'
p4680
I4237
sS'swampy'
p4681
I2004
sS'stood'
p4682
I2005
sS'wrecked'
p4683
I4258
sS'stool'
p4684
I2008
sS'stoop'
p4685
I2010
sS'fixings'
p4686
I2011
sS'public'
p4687
I4300
sS'movement'
p4688
I2015
sS'tattoos'
p4689
I2017
sS'videogame'
p4690
I2018
sS'bowtie'
p4691
I2021
sS'surfer'
p4692
I3655
sS'puddles'
p4693
I6468
sS'ranger'
p4694
I4360
sS'beacon'
p4695
I2027
sS'cylindrical'
p4696
I2028
sS'operating'
p4697
I2029
sS'affectionately'
p4698
I2030
sS'search'
p4699
I4403
sS'stretching'
p4700
I2034
sS'storefront'
p4701
I2035
sS'sofas'
p4702
I2037
sS'airport'
p4703
I2038
sS'lasagna'
p4704
I2039
sS'narrow'
p4705
I2043
sS'whimsical'
p4706
I2046
sS'fenced'
p4707
I6227
sS'buses'
p4708
I2051
sS'transit'
p4709
I4514
sS'africa'
p4710
I2054
sS'emptied'
p4711
I2056
sS'suits'
p4712
I6604
sS'armed'
p4713
I2059
sS'dachshund'
p4714
I2060
sS'eye'
p4715
I2061
sS'wiped'
p4716
I2063
sS'destination'
p4717
I2064
sS'texting'
p4718
I2065
sS'two'
p4719
I5434
sS'twp'
p4720
I2068
sS'tacks'
p4721
I4627
sS'amenities'
p4722
I2070
sS'raft'
p4723
I2073
sS'wipes'
p4724
I4657
sS'pawing'
p4725
I2079
sS'diamond'
p4726
I2080
sS'caboose'
p4727
I2083
sS'purse'
p4728
I7312
sS'landed'
p4729
I4721
sS'controlling'
p4730
I2089
sS'lemons'
p4731
I2090
sS'varying'
p4732
I2091
sS'goblets'
p4733
I4752
sS'town'
p4734
I2093
sS'hour'
p4735
I2096
sS'middle'
p4736
I2097
sS'dew'
p4737
I2100
sS'guards'
p4738
I2101
sS'remain'
p4739
I4809
sS'den'
p4740
I2104
sS'tows'
p4741
I2111
sS'shark'
p4742
I2113
sS'hamburger'
p4743
I2115
sS'share'
p4744
I4885
sS'numbers'
p4745
I2124
sS'purchased'
p4746
I2125
sS'sharp'
p4747
I4928
sS'needs'
p4748
I4952
sS'awkward'
p4749
I2131
sS'comfort'
p4750
I2133
sS'quesadilla'
p4751
I2135
sS'stir'
p4752
I5029
sS'charms'
p4753
I2145
sS'blood'
p4754
I2149
sS'coming'
p4755
I5102
sS'bloom'
p4756
I5119
sS'bleak'
p4757
I2154
sS'chute'
p4758
I2155
sS'orchard'
p4759
I2156
sS'crowded'
p4760
I5151
sS'coat'
p4761
I2158
sS'toiletries'
p4762
I2159
sS'paw'
p4763
I6586
sS'eats'
p4764
I4167
sS'bathed'
p4765
I5168
sS'dragon'
p4766
I2163
sS'upholstered'
p4767
I2164
sS'coal'
p4768
I2165
sS'playing'
p4769
I2168
sS"that's"
p4770
I2170
sS'infant'
p4771
I5227
sS'rounded'
p4772
I5229
sS'stains'
p4773
I5240
sS'already'
p4774
I4725
sS'through'
p4775
I5268
sS'same'
p4776
I2181
sS'24'
p4777
I2190
sS'messed'
p4778
I5298
sS'pens'
p4779
I2902
sS'22'
p4780
I5308
sS'29'
p4781
I2195
sS'handheld'
p4782
I2196
sS'late'
p4783
I2197
sS'dolly'
p4784
I5351
sS'penn'
p4785
I4881
sS'pesto'
p4786
I5366
sS'dolls'
p4787
I2205
sS'lookout'
p4788
I2206
sS'good'
p4789
I2207
sS'males'
p4790
I2211
sS'detour'
p4791
I5428
sS'walls'
p4792
I2215
sS'easily'
p4793
I2218
sS'huddle'
p4794
I2219
sS'chairlift'
p4795
I2220
sS'pregnant'
p4796
I5512
sS'micro'
p4797
I5530
sS'goofy'
p4798
I2723
sS'positions'
p4799
I6631
sS'biscuits'
p4800
I2229
sS'crowding'
p4801
I6658
sS'nuzzle'
p4802
I2232
sS'everyone'
p4803
I5578
sS'chopper'
p4804
I4145
sS'exhaust'
p4805
I2236
sS'house'
p4806
I5598
sS'energy'
p4807
I2238
sS'hard'
p4808
I2239
sS'monks'
p4809
I2240
sS'engaging'
p4810
I2242
sS'extended'
p4811
I2243
sS'connect'
p4812
I2244
sS'fist'
p4813
I3316
sS'backpacks'
p4814
I2247
sS'comic'
p4815
I4147
sS'flower'
p4816
I2251
sS'trooper'
p4817
I2254
sS'pigeon'
p4818
I2255
sS'projected'
p4819
I2256
sS'acting'
p4820
I5709
sS'granola'
p4821
I3292
sS'print'
p4822
I2259
sS'foreground'
p4823
I2262
sS'unidentifiable'
p4824
I2263
sS'crouched'
p4825
I2264
sS'bulls'
p4826
I2268
sS'geared'
p4827
I2269
sS'crouches'
p4828
I2271
sS'members'
p4829
I2273
sS'backed'
p4830
I2275
sS'beginning'
p4831
I2277
sS'faucet'
p4832
I5826
sS'computers'
p4833
I5847
sS'dribbles'
p4834
I2282
sS'pure'
p4835
I6843
sS'barber'
p4836
I2285
sS'pilots'
p4837
I2287
sS'copper'
p4838
I2290
sS'done'
p4839
I2296
sS'tot'
p4840
I3169
sS'campground'
p4841
I2298
sS'cups'
p4842
I2300
sS'razor'
p4843
I2302
sS'twenty'
p4844
I2307
sS'5th'
p4845
I2308
sS'jetty'
p4846
I2309
sS'least'
p4847
I2310
sS'paint'
p4848
I6045
sS'leash'
p4849
I6049
sS'mama'
p4850
I2315
sS'compartment'
p4851
I2316
sS'muscles'
p4852
I2317
sS'para'
p4853
I2319
sS'drapes'
p4854
I2320
sS'needle'
p4855
I2321
sS'park'
p4856
I2322
sS'trolly'
p4857
I2324
sS'scantily'
p4858
I2325
sS'doctors'
p4859
I2327
sS'stirs'
p4860
I2331
sS'b'
I2333
sS'gotten'
p4861
I2335
sS'youth'
p4862
I4459
sS'interactive'
p4863
I2343
sS'curtains'
p4864
I2344
sS'ages'
p4865
I2347
sS'aged'
p4866
I2351
sS'orders'
p4867
I877
sS'backseat'
p4868
I2353
sS'mountain'
p4869
I1350
sS'cardigan'
p4870
I2356
sS'built'
p4871
I2357
sS'dancing'
p4872
I2358
sS'couch'
p4873
I2361
sS'lifts'
p4874
I2364
sS'build'
p4875
I2365
sS'rafters'
p4876
I2366
sS'zucchini'
p4877
I2370
sS'folders'
p4878
I2371
sS'serene'
p4879
I6422
sS'serve'
p4880
I4178
sS'eggs'
p4881
I2374
sS'salmon'
p4882
I6444
sS'serviced'
p4883
I2505
sS'most'
p4884
I2379
sS'charm'
p4885
I6473
sS'moss'
p4886
I2382
sS'services'
p4887
I2383
sS'extremely'
p4888
I2386
sS'refrigerator'
p4889
I2388
sS'chested'
p4890
I2389
sS'feasting'
p4891
I2390
sS'cramped'
p4892
I2395
sS'reflections'
p4893
I6551
sS'pomegranates'
p4894
I2399
sS'thomas'
p4895
I2401
sS'sparrow'
p4896
I4201
sS'scattered'
p4897
I2406
sS'hugging'
p4898
I2407
sS'perches'
p4899
I2408
sS'hillside'
p4900
I2409
sS'crocheted'
p4901
I2411
sS'businesses'
p4902
I2413
sS'carefully'
p4903
I2415
sS'fine'
p4904
I2416
sS'find'
p4905
I2417
sS'giant'
p4906
I6674
sS'dividing'
p4907
I6685
sS'unhappy'
p4908
I6706
sS'8'
I6740
sS'boulder'
p4909
I6763
sS'mein'
p4910
I2433
sS'express'
p4911
I2435
sS'toddlers'
p4912
I2437
sS'ferret'
p4913
I2438
sS'batter'
p4914
I2440
sS'breast'
p4915
I6816
sS'silk'
p4916
I2444
sS'sill'
p4917
I6830
sS'merchandise'
p4918
I2446
sS'silo'
p4919
I2447
sS'motorcycles'
p4920
I2448
sS'remove'
p4921
I2454
sS'common'
p4922
I6901
sS'doubles'
p4923
I2458
sS'mouthwash'
p4924
I2460
sS'restaurants'
p4925
I6225
sS'scruffy'
p4926
I2465
sS'opposing'
p4927
I2466
sS'vine'
p4928
I2467
sS'tended'
p4929
I2468
sS'lion'
p4930
I6979
sS'individual'
p4931
I2471
sS'quiche'
p4932
I3408
sS'repairs'
p4933
I7017
sS'expert'
p4934
I2479
sS'visiting'
p4935
I2480
sS'burner'
p4936
I2484
sS'halves'
p4937
I2486
sS'fans'
p4938
I7063
sS'envelopes'
p4939
I2488
sS'cutout'
p4940
I3845
sS'champagne'
p4941
I2490
sS'iron'
p4942
I5182
sS'mailbox'
p4943
I2495
sS'aircraft'
p4944
I2497
sS'pepsi'
p4945
I2499
sS'sheeps'
p4946
I2500
sS'floats'
p4947
I2502
sS'cubes'
p4948
I2503
sS'folding'
p4949
I6179
sS'restaurant'
p4950
I2506
sS'archway'
p4951
I2507
sS'foreign'
p4952
I2509
sS'alot'
p4953
I2511
sS'baltimore'
p4954
I7257
sS'cakes'
p4955
I7268
sS'point'
p4956
I5794
sS'simple'
p4957
I2519
sS'recycling'
p4958
I7290
sS'newborn'
p4959
I7304
sS'pamphlet'
p4960
I2525
sS'dances'
p4961
I2526
sS'simply'
p4962
I7314
sS'caked'
p4963
I7316
sS'throughout'
p4964
I2531
sS'expensive'
p4965
I2532
sS'patiently'
p4966
I7348
sS'consuming'
p4967
I2535
sS'weaving'
p4968
I7359
sS'raise'
p4969
I2538
sS'create'
p4970
I2540
sS'screened'
p4971
I2541
sS'dropping'
p4972
I2543
sS'portraits'
p4973
I2545
sS'peppers'
p4974
I2546
sS'meeting'
p4975
I2547
sS'attire'
p4976
I6665
sS'vans'
p4977
I2549
sS'reigns'
p4978
I2550
sS'gay'
p4979
I2552
sS'assorted'
p4980
I2553
sS'gas'
p4981
I2557
sS'gap'
p4982
I2558
sS'vane'
p4983
I7479
sS'prices'
p4984
I2563
sS'fur'
p4985
I2569
sS'grains'
p4986
I2570
sS'raw'
p4987
I6826
sS'solid'
p4988
I2572
sS'bill'
p4989
I2575
sS'grainy'
p4990
I2576
sS'tiered'
p4991
I2579
sS'replaced'
p4992
I2580
sS'fun'
p4993
I2583
sS'manner'
p4994
I4213
sS'larger'
p4995
I6688
sS'century'
p4996
I2591
sS'cents'
p4997
I136
sS'decoration'
p4998
I2595
sS'itself'
p4999
I2596
sS'facade'
p5000
I2599
sS'hydrants'
p5001
I2601
sS'italy'
p5002
I2605
sS'ewe'
p5003
I2606
sS'corridor'
p5004
I252
sS'ray'
p5005
I4220
sS'windmill'
p5006
I2612
sS'strips'
p5007
I2613
sS'tupperware'
p5008
I2615
sS'keys'
p5009
I3358
sS'leopard'
p5010
I2618
sS'desks'
p5011
I308
sS'moment'
p5012
I319
sS'purpose'
p5013
I2623
sS'wheelchairs'
p5014
I2624
sS'sandals'
p5015
I2625
sS'celebratory'
p5016
I354
sS'lacrosse'
p5017
I2629
sS'sumo'
p5018
I1704
sS'beanie'
p5019
I2631
sS'task'
p5020
I2632
sS'flags'
p5021
I2639
sS'nordic'
p5022
I2640
sS'swiss'
p5023
I1637
sS'organization'
p5024
I2642
sS'paneling'
p5025
I2643
sS'eyeglasses'
p5026
I2645
sS'isolated'
p5027
I2650
sS'shape'
p5028
I2651
sS'rundown'
p5029
I2656
sS'cut'
p5030
I554
sS'cup'
p5031
I2661
sS'danger'
p5032
I6699
sS'source'
p5033
I1479
sS'cub'
p5034
I2031
sS'snap'
p5035
I2670
sS'bridal'
p5036
I2671
sS'excited'
p5037
I2673
sS'unloading'
p5038
I627
sS'bin'
p5039
I2675
sS'big'
p5040
I2678
sS'bib'
p5041
I2680
sS'bit'
p5042
I2683
sS'disrepair'
p5043
I2685
sS'semi'
p5044
I2688
sS'follows'
p5045
I2690
sS'glove'
p5046
I2692
sS'bamboo'
p5047
I2697
sS'google'
p5048
I2700
sS'gardening'
p5049
I2701
sS'often'
p5050
I2702
sS'humorous'
p5051
I2703
sS'magnificent'
p5052
I4151
sS'back'
p5053
I2706
sS'ornaments'
p5054
I42
sS'mirror'
p5055
I2711
sS'candle'
p5056
I876
sS'server'
p5057
I2713
sS'ontop'
p5058
I2715
sS'googly'
p5059
I2716
sS'discarded'
p5060
I3512
sS'scale'
p5061
I2718
sS'jewelry'
p5062
I2719
sS'pet'
p5063
I2721
sS'per'
p5064
I939
sS'pen'
p5065
I2724
sS'sneakers'
p5066
I2726
sS'pea'
p5067
I977
sS'laughing'
p5068
I430
sS'cameraman'
p5069
I2731
sS'patient'
p5070
I2732
sS'taxing'
p5071
I2733
sS'costumes'
p5072
I1018
sS'lounges'
p5073
I1044
sS'costumed'
p5074
I2740
sS'moored'
p5075
I1078
sS'goods'
p5076
I2746
sS'usa'
p5077
I6716
sS'piles'
p5078
I1091
sS'iced'
p5079
I6717
sS'oatmeal'
p5080
I5055
sS'piled'
p5081
I2751
sS'beans'
p5082
I2752
sS'auditorium'
p5083
I3720
sS'daisies'
p5084
I2756
sS'framed'
p5085
I2763
sS'rackets'
p5086
I6721
sS'frames'
p5087
I2767
sS'lesson'
p5088
I2769
sS'downhill'
p5089
I2770
sS'jockey'
p5090
I2772
sS'pared'
p5091
I2781
sS'homemade'
p5092
I2782
sS'forward'
p5093
I2784
sS'bored'
p5094
I2785
sS'opponent'
p5095
I2788
sS'adjusting'
p5096
I166
sS'stunning'
p5097
I5755
sS'slacks'
p5098
I7261
sS'boys'
p5099
I2794
sS'calico'
p5100
I1450
sS'lifeguard'
p5101
I2802
sS'restaraunt'
p5102
I2803
sS'clips'
p5103
I2806
sS'planes'
p5104
I1519
sS'jumbo'
p5105
I2812
sS'geese'
p5106
I1551
sS'flow'
p5107
I4251
sS'mopeds'
p5108
I2819
sS'single'
p5109
I2821
sS'curb'
p5110
I2823
sS'necks'
p5111
I2824
sS'pasture'
p5112
I2826
sS'curl'
p5113
I2828
sS'cafe'
p5114
I2829
sS'freeway'
p5115
I4252
sS'pecks'
p5116
I2835
sS'plugged'
p5117
I1678
sS'mayonnaise'
p5118
I2842
sS'brushing'
p5119
I2844
sS'explaining'
p5120
I2845
sS'cellar'
p5121
I1743
sS'firetruck'
p5122
I2849
sS'prepared'
p5123
I2850
sS'lens'
p5124
I2851
sS'overripe'
p5125
I5579
sS'prepares'
p5126
I2853
sS'depicting'
p5127
I2854
sS'desert'
p5128
I3184
sS'mantel'
p5129
I2861
sS'overlooking'
p5130
I2862
sS'cooker'
p5131
I2863
sS'vehicles'
p5132
I2866
sS'admiring'
p5133
I2869
sS'cooked'
p5134
I2870
sS'presenting'
p5135
I1900
sS'colonial'
p5136
I2873
sS'stroller'
p5137
I6481
sS'rusting'
p5138
I2882
sS'groceries'
p5139
I2883
sS'snowmobile'
p5140
I2884
sS'intricate'
p5141
I2885
sS'peanut'
p5142
I2891
sS'av'
p5143
I2895
sS'helps'
p5144
I2896
sS'frisbees'
p5145
I2897
sS'mowed'
p5146
I2898
sS'gravel'
p5147
I2899
sS'skiies'
p5148
I2103
sS'skiier'
p5149
I2901
sS'random'
p5150
I2904
sS'dessert'
p5151
I2907
sS'huddled'
p5152
I2909
sS'putting'
p5153
I2912
sS'legos'
p5154
I2919
sS'entire'
p5155
I2208
sS'recreation'
p5156
I2921
sS'doggy'
p5157
I2922
sS'announcing'
p5158
I6748
sS'knight'
p5159
I2925
sS'choppy'
p5160
I2931
sS'lapse'
p5161
I6750
sS'measuring'
p5162
I2933
sS'bleeding'
p5163
I2934
sS'crow'
p5164
I2935
sS'crop'
p5165
I2936
sS'rivers'
p5166
I2937
sS'chicago'
p5167
I2945
sS'giving'
p5168
I2946
sS'pipes'
p5169
I2947
sS'raincoat'
p5170
I7238
sS'paddle'
p5171
I2949
sS'access'
p5172
I2950
sS'clipboard'
p5173
I2427
sS'exercise'
p5174
I123
sS'3d'
p5175
I2958
sS'body'
p5176
I2463
sS'raising'
p5177
I6511
sS'exchange'
p5178
I4040
sS'packing'
p5179
I2966
sS'objects'
p5180
I2967
sS'sink'
p5181
I2969
sS'others'
p5182
I2970
sS'sing'
p5183
I2971
sS'jockeys'
p5184
I2973
sS'extreme'
p5185
I2975
sS'stalks'
p5186
I2978
sS'dispensers'
p5187
I2981
sS'30'
p5188
I1738
sS'alaska'
p5189
I2983
sS'35'
p5190
I2984
sS'climb'
p5191
I2987
sS'named'
p5192
I2990
sS'baskets'
p5193
I2992
sS'limo'
p5194
I2993
sS'limb'
p5195
I2994
sS'inclosure'
p5196
I2995
sS'lime'
p5197
I2998
sS'taxiing'
p5198
I3000
sS'themselves'
p5199
I3008
sS'charcoal'
p5200
I2817
sS'upcoming'
p5201
I3010
sS'kiosk'
p5202
I3013
sS'trail'
p5203
I3015
sS'train'
p5204
I4090
sS'tattered'
p5205
I3019
sS'arranging'
p5206
I5946
sS'nypd'
p5207
I2888
sS'f'
I3028
sS'tunnel'
p5208
I2928
sS'carrot'
p5209
I6771
sS'closing'
p5210
I3038
sS'fetch'
p5211
I3039
sS'snacks'
p5212
I3044
sS'sanding'
p5213
I3050
sS'bones'
p5214
I3053
sS'hangar'
p5215
I3063
sS'lamb'
p5216
I3064
sS'curving'
p5217
I3065
sS'varied'
p5218
I3067
sS'holds'
p5219
I4352
sS'grimaces'
p5220
I3070
sS'formations'
p5221
I3071
sS'lamp'
p5222
I3074
sS'forest'
p5223
I2887
sS'feta'
p5224
I3140
sS'furnace'
p5225
I3152
sS'onlookers'
p5226
I3080
sS'profile'
p5227
I4646
sS'egret'
p5228
I6779
sS'buildings'
p5229
I3083
sS'railings'
p5230
I3084
sS'waters'
p5231
I3087
sS'roam'
p5232
I3734
sS'collection'
p5233
I3203
sS'sip'
p5234
I6780
sS'seashells'
p5235
I3235
sS'terrier'
p5236
I3097
sS'cuddling'
p5237
I6483
sS'chasing'
p5238
I3100
sS'lines'
p5239
I3102
sS'liner'
p5240
I3288
sS'linen'
p5241
I3105
sS'minivan'
p5242
I3321
sS'lined'
p5243
I3110
sS'unmade'
p5244
I3111
sS'bins'
p5245
I3112
sS'meter'
p5246
I3118
sS'symbols'
p5247
I3119
sS'hugged'
p5248
I3121
sS'horns'
p5249
I3123
sS'bunch'
p5250
I3124
sS'bridges'
p5251
I3126
sS'la'
p5252
I3127
sS'lo'
p5253
I3128
sS'winning'
p5254
I3130
sS'squatting'
p5255
I3132
sS'marsh'
p5256
I3133
sS'dad'
p5257
I3136
sS'junction'
p5258
I3139
sS'spell'
p5259
I3142
sS'cutting'
p5260
I3145
sS'day'
p5261
I3585
sS'straddling'
p5262
I3150
sS'stunts'
p5263
I5203
sS'blindfolded'
p5264
I3153
sS'cider'
p5265
I3158
sS'lingerie'
p5266
I3160
sS'gazing'
p5267
I3165
sS'homeless'
p5268
I3170
sS'pantry'
p5269
I3173
sS'sweatshirt'
p5270
I3175
sS'popping'
p5271
I5834
sS'skillet'
p5272
I3180
sS'mats'
p5273
I3181
sS'kids'
p5274
I3182
sS'hedges'
p5275
I3183
sS'wholly'
p5276
I3186
sS'mate'
p5277
I3187
sS'messenger'
p5278
I3815
sS'flushing'
p5279
I3190
sS'lecture'
p5280
I3191
sS'electronics'
p5281
I3192
sS'windsurfing'
p5282
I3193
sS'red'
p5283
I3194
sS'duffle'
p5284
I3200
sS'salami'
p5285
I3898
sS'approaches'
p5286
I6367
sS'hazard'
p5287
I3557
sS'retriever'
p5288
I3207
sS'backwards'
p5289
I3209
sS'yard'
p5290
I3210
sS'ruins'
p5291
I3521
sS'shells'
p5292
I3213
sS'skateboard'
p5293
I3214
sS'yarn'
p5294
I3215
sS'vehicular'
p5295
I6958
sS'barriers'
p5296
I3220
sS'retail'
p5297
I3221
sS'waitress'
p5298
I4023
sS'sheering'
p5299
I4308
sS'girafee'
p5300
I3226
sS'taco'
p5301
I6803
sS'sack'
p5302
I4062
sS'hey'
p5303
I1903
sS'hurdle'
p5304
I4081
sS'reached'
p5305
I3237
sS'braces'
p5306
I3240
sS'windsurfers'
p5307
I3241
sS'ancient'
p5308
I3242
sS'monkey'
p5309
I4126
sS'smartphones'
p5310
I7196
sS'laps'
p5311
I3247
sS'staning'
p5312
I3248
sS'pots'
p5313
I4143
sS'chases'
p5314
I4189
sS'nut'
p5315
I4235
sS'cabin'
p5316
I3255
sS'gear'
p5317
I5791
sS'bulldog'
p5318
I3262
sS'completed'
p5319
I3263
sS'dreary'
p5320
I3265
sS'foamy'
p5321
I3266
sS'ipad'
p5322
I6149
sS'lightening'
p5323
I3271
sS'furnishings'
p5324
I3273
sS'shampoo'
p5325
I3274
sS'loves'
p5326
I3277
sS'flashes'
p5327
I3279
sS'nuzzling'
p5328
I3282
sS'tidy'
p5329
I3285
sS'curves'
p5330
I4407
sS'comfortable'
p5331
I4410
sS'tide'
p5332
I3289
sS'comfortably'
p5333
I3291
sS'have'
p5334
I3293
sS'curved'
p5335
I3294
sS'apparently'
p5336
I4448
sS'sidecar'
p5337
I5148
sS'mic'
p5338
I3304
sS'mid'
p5339
I3306
sS'parks'
p5340
I3307
sS'mix'
p5341
I3309
sS'gliding'
p5342
I3313
sS'chaise'
p5343
I3314
sS'parka'
p5344
I1277
sS'mit'
p5345
I3225
sS'mangoes'
p5346
I4319
sS'pausing'
p5347
I3322
sS'eight'
p5348
I3324
sS'tripod'
p5349
I3325
sS'handbag'
p5350
I1382
sS'beets'
p5351
I3330
sS'quilted'
p5352
I3331
sS'gather'
p5353
I3332
sS'workspace'
p5354
I3336
sS'occasion'
p5355
I3338
sS'skinny'
p5356
I3339
sS'planks'
p5357
I3341
sS'selection'
p5358
I3343
sS'kite'
p5359
I3344
sS'settee'
p5360
I3345
sS'text'
p5361
I923
sS'rotating'
p5362
I3348
sS'kits'
p5363
I4786
sS'thicket'
p5364
I3355
sS'staff'
p5365
I3356
sS'coloring'
p5366
I4820
sS'homeplate'
p5367
I4331
sS'controls'
p5368
I3362
sS'emitting'
p5369
I4891
sS'photographs'
p5370
I3372
sS'beat'
p5371
I3375
sS'photography'
p5372
I3376
sS'stripes'
p5373
I4953
sS'bear'
p5374
I3379
sS'beam'
p5375
I3380
sS'bean'
p5376
I3381
sS'beak'
p5377
I3382
sS'bead'
p5378
I3383
sS'striped'
p5379
I3384
sS'areas'
p5380
I3386
sS'crabs'
p5381
I3387
sS'organ'
p5382
I3389
sS'fixes'
p5383
I3390
sS'calling'
p5384
I5050
sS'mercedes'
p5385
I3394
sS'fixed'
p5386
I5080
sS'costume'
p5387
I6824
sS'turkeys'
p5388
I3398
sS'national'
p5389
I5130
sS'outfielder'
p5390
I3404
sS'daffodils'
p5391
I3405
sS'racket'
p5392
I5166
sS'tuxedos'
p5393
I3409
sS'footlong'
p5394
I5184
sS'awaits'
p5395
I3411
sS'graffitti'
p5396
I5199
sS'attempting'
p5397
I3417
sS'clearing'
p5398
I5214
sS'purses'
p5399
I3419
sS'icecream'
p5400
I3420
sS'hammock'
p5401
I3421
sS'progress'
p5402
I3423
sS'cauliflower'
p5403
I3427
sS'deliver'
p5404
I3429
sS'freely'
p5405
I5377
sS'taking'
p5406
I3436
sS'boulders'
p5407
I3438
sS'busted'
p5408
I3442
sS'swim'
p5409
I3445
sS'passing'
p5410
I3447
sS'otherwise'
p5411
I3449
sS'detailed'
p5412
I3450
sS'statues'
p5413
I5465
sS'basins'
p5414
I3452
sS'denim'
p5415
I3453
sS'overcoat'
p5416
I3454
sS'laugh'
p5417
I5522
sS'bespectacled'
p5418
I3458
sS'walnut'
p5419
I6834
sS'pouring'
p5420
I3461
sS'swimmer'
p5421
I5563
sS'muddy'
p5422
I3465
sS'$$S$$'
p5423
I7480
sS'gaze'
p5424
I794
sS'seasoned'
p5425
I3467
sS'curtain'
p5426
I3469
sS'kitchen'
p5427
I4353
sS'angled'
p5428
I3473
sS'finishes'
p5429
I3474
sS'stationed'
p5430
I5640
sS'airplanes'
p5431
I3477
sS'preforming'
p5432
I3478
sS'ridden'
p5433
I3479
sS'finished'
p5434
I3480
sS'sausages'
p5435
I3481
sS'angles'
p5436
I3483
sS'clusters'
p5437
I6838
sS'bulb'
p5438
I3485
sS'general'
p5439
I2194
sS'locomotives'
p5440
I3487
sS'homes'
p5441
I3488
sS'multi'
p5442
I3489
sS'plaid'
p5443
I3490
sS'welcoming'
p5444
I3491
sS'splits'
p5445
I3492
sS'plain'
p5446
I3493
sS'as'
p5447
I2830
sS'rectangular'
p5448
I3496
sS'hoagie'
p5449
I4185
sS'at'
p5450
I3500
sS'almost'
p5451
I3504
sS'squid'
p5452
I3505
sS'respected'
p5453
I5431
sS'arrangements'
p5454
I3509
sS'partner'
p5455
I5856
sS'arabic'
p5456
I3513
sS'pedestal'
p5457
I3515
sS'grinder'
p5458
I3518
sS'citrus'
p5459
I6236
sS'chandeliers'
p5460
I5642
sS'taxidermy'
p5461
I7293
sS'shuttle'
p5462
I3527
sS'blooms'
p5463
I3530
sS'injured'
p5464
I3531
sS'practice'
p5465
I6204
sS'upclose'
p5466
I3537
sS'ion'
p5467
I3539
sS'croissants'
p5468
I3542
sS'numbered'
p5469
I3548
sS'center'
p5470
I3551
sS'sweets'
p5471
I6851
sS'thought'
p5472
I3553
sS'kiteboarding'
p5473
I6101
sS'sets'
p5474
I6114
sS'position'
p5475
I3558
sS'floored'
p5476
I1891
sS'latest'
p5477
I3561
sS'coaster'
p5478
I3563
sS'barking'
p5479
I6148
sS'proximity'
p5480
I3567
sS'domestic'
p5481
I3568
sS'stored'
p5482
I6180
sS'seats'
p5483
I3573
sS'protecting'
p5484
I3574
sS'flashlight'
p5485
I3578
sS'ads'
p5486
I3580
sS'onward'
p5487
I3583
sS'lake'
p5488
I3584
sS'bench'
p5489
I6254
sS'add'
p5490
I3586
sS'sedan'
p5491
I3587
sS'match'
p5492
I3592
sS'dryer'
p5493
I3596
sS'motorola'
p5494
I3605
sS'rumpled'
p5495
I6401
sS'like'
p5496
I3607
sS'inviting'
p5497
I6406
sS'sofa'
p5498
I3610
sS'chick'
p5499
I6454
sS'works'
p5500
I3615
sS'soft'
p5501
I3616
sS'heel'
p5502
I3617
sS'italian'
p5503
I3618
sS'accessible'
p5504
I3619
sS'carnations'
p5505
I3621
sS'swimsuits'
p5506
I3626
sS'hair'
p5507
I3627
sS'proper'
p5508
I3632
sS'paddock'
p5509
I3633
sS'shrub'
p5510
I3637
sS'dunes'
p5511
I3638
sS'students'
p5512
I3642
sS'bustling'
p5513
I6615
sS'speak'
p5514
I4381
sS'snuggle'
p5515
I3646
sS'pepper'
p5516
I3650
sS'hose'
p5517
I6647
sS'proud'
p5518
I1650
sS'slight'
p5519
I3653
sS'tucks'
p5520
I3657
sS'host'
p5521
I3658
sS'panel'
p5522
I4380
sS'waving'
p5523
I3662
sS'about'
p5524
I6735
sS'actual'
p5525
I3665
sS'boards'
p5526
I3666
sS'beaked'
p5527
I3672
sS'tailed'
p5528
I3673
sS'childrens'
p5529
I3677
sS'vegetated'
p5530
I3680
sS'zooms'
p5531
I3682
sS'socks'
p5532
I3683
sS'guard'
p5533
I3685
sS'female'
p5534
I3688
sS'custard'
p5535
I3692
sS'underpass'
p5536
I3693
sS'adolescent'
p5537
I3695
sS'stainless'
p5538
I3696
sS'vegetables'
p5539
I6934
sS'firefighter'
p5540
I3699
sS'rushes'
p5541
I3701
sS'bees'
p5542
I6047
sS'chunk'
p5543
I6876
sS'ivory'
p5544
I3706
sS'buy'
p5545
I3707
sS'chatting'
p5546
I3709
sS'bus'
p5547
I3711
sS'brand'
p5548
I4937
sS'but'
p5549
I3713
sS'landscaping'
p5550
I3715
sS'bun'
p5551
I3717
sS'bookshelf'
p5552
I7048
sS'inverted'
p5553
I6878
sS'bug'
p5554
I7064
sS'bud'
p5555
I3722
sS'partially'
p5556
I3723
sS'misty'
p5557
I3724
sS'tater'
p5558
I6230
sS'dangerous'
p5559
I3730
sS'flip'
p5560
I3733
sS'condiment'
p5561
I3741
sS'squat'
p5562
I3742
sS'obstacles'
p5563
I7250
sS'skating'
p5564
I3743
sS'supreme'
p5565
I7158
sS'rabbits'
p5566
I3746
sS'pin'
p5567
I3747
sS'brochures'
p5568
I3749
sS'circus'
p5569
I3750
sS'pie'
p5570
I3752
sS'pig'
p5571
I3753
sS'tabletop'
p5572
I3756
sS'shooting'
p5573
I3758
sS'pit'
p5574
I3759
sS'campus'
p5575
I3729
sS'messily'
p5576
I3761
sS'dressed'
p5577
I3764
sS'45'
p5578
I3765
sS'oak'
p5579
I3766
sS'detail'
p5580
I3767
sS'40'
p5581
I3768
sS'flys'
p5582
I3604
sS'ledge'
p5583
I3771
sS'granite'
p5584
I7122
sS'dresses'
p5585
I6520
sS'dresser'
p5586
I3774
sS'bundle'
p5587
I3777
sS'stirred'
p5588
I3783
sS'baker'
p5589
I3785
sS'littered'
p5590
I6889
sS'trio'
p5591
I5324
sS'baked'
p5592
I3792
sS'hats'
p5593
I2894
sS'sleek'
p5594
I3796
sS'doubledecker'
p5595
I3797
sS'sleep'
p5596
I3799
sS'hate'
p5597
I3802
sS'assembled'
p5598
I86
sS'poorly'
p5599
I3804
sS'trolley'
p5600
I3805
sS'muzzle'
p5601
I3806
sS'feeding'
p5602
I3807
sS'patches'
p5603
I3809
sS'paris'
p5604
I3810
sS'teapot'
p5605
I4412
sS'under'
p5606
I3814
sS'pride'
p5607
I159
sS'merchant'
p5608
I3817
sS'performs'
p5609
I6896
sS'dollar'
p5610
I1933
sS'plaques'
p5611
I7450
sS'rise'
p5612
I3823
sS'every'
p5613
I223
sS'jack'
p5614
I3826
sS'confetti'
p5615
I3827
sS'fireplace'
p5616
I3829
sS'monkeys'
p5617
I3830
sS'school'
p5618
I3834
sS'motorcyclist'
p5619
I3837
sS'supports'
p5620
I1591
sS'venue'
p5621
I3840
sS'guiding'
p5622
I3844
sS'enjoy'
p5623
I3848
sS'bicycle'
p5624
I3851
sS'almond'
p5625
I3853
sS'feathers'
p5626
I3854
sS'direct'
p5627
I3855
sS'frosted'
p5628
I3856
sS'nail'
p5629
I2391
sS'surrounding'
p5630
I3859
sS'street'
p5631
I3860
sS'monorail'
p5632
I2209
sS'shining'
p5633
I3865
sS'blue'
p5634
I3866
sS'hide'
p5635
I3868
sS'beaten'
p5636
I3869
sS'liberty'
p5637
I3871
sS'briefcases'
p5638
I1939
sS'blur'
p5639
I2647
sS'supplies'
p5640
I955
sS'disney'
p5641
I3879
sS'dashboard'
p5642
I4420
sS'pontoon'
p5643
I550
sS'ramps'
p5644
I3885
sS'hundreds'
p5645
I3886
sS'socialize'
p5646
I3887
sS'pate'
p5647
I569
sS'path'
p5648
I3891
sS'stares'
p5649
I3892
sS'mozzarella'
p5650
I3893
sS'luggage'
p5651
I621
sS'auction'
p5652
I3899
sS'leaves'
p5653
I4421
sS'changed'
p5654
I3902
sS'jogging'
p5655
I3905
sS'changes'
p5656
I3911
sS'pendant'
p5657
I6913
sS'prints'
p5658
I3913
sS'straw'
p5659
I3915
sS'erected'
p5660
I4001
sS'visible'
p5661
I3919
sS'meats'
p5662
I3921
sS'meaty'
p5663
I3924
sS'swings'
p5664
I3927
sS'scaffolding'
p5665
I3928
sS'would'
p5666
I3929
sS'hospital'
p5667
I801
sS'spiky'
p5668
I804
sS'teddybear'
p5669
I3935
sS'billowing'
p5670
I909
sS'brushy'
p5671
I2822
sS'phone'
p5672
I3943
sS'excellent'
p5673
I3944
sS'pouch'
p5674
I948
sS'must'
p5675
I3947
sS'abundance'
p5676
I959
sS'hutch'
p5677
I3949
sS'ma'
p5678
I5767
sS'mm'
p5679
I3951
sS'my'
p5680
I3962
sS'decorative'
p5681
I3966
sS'estate'
p5682
I5765
sS'dolphin'
p5683
I3968
sS'gadgets'
p5684
I3971
sS'jetliner'
p5685
I1109
sS'keep'
p5686
I6927
sS'ceremony'
p5687
I3977
sS'end'
p5688
I3978
sS'bunk'
p5689
I3981
sS'sitting'
p5690
I3982
sS'slalom'
p5691
I1791
sS'rhinoceros'
p5692
I3985
sS'buns'
p5693
I3987
sS'bunt'
p5694
I3988
sS'adjacent'
p5695
I3989
sS'gate'
p5696
I3991
sS'charging'
p5697
I3994
sS'badly'
p5698
I3996
sS'pokes'
p5699
I3997
sS'elizabeth'
p5700
I949
sS'mouths'
p5701
I3999
sS'mess'
p5702
I4000
sS'jumping'
p5703
I4007
sS'sparkler'
p5704
I4009
sS'salsa'
p5705
I4010
sS'parallel'
p5706
I4013
sS'croissant'
p5707
I3835
sS'spout'
p5708
I4016
sS'harley'
p5709
I4019
sS'upside'
p5710
I7222
sS'jungle'
p5711
I1385
sS'enter'
p5712
I1395
sS'plumbing'
p5713
I4025
sS'sprout'
p5714
I5233
sS'over'
p5715
I4032
sS'underside'
p5716
I4033
sS'jacuzzi'
p5717
I4034
sS'executes'
p5718
I1481
sS'oven'
p5719
I4036
sS'forehead'
p5720
I4041
sS'writing'
p5721
I4045
sS'destroyed'
p5722
I4046
sS'tilts'
p5723
I4047
sS'tourist'
p5724
I4053
sS'plaster'
p5725
I1630
sS'clocktower'
p5726
I5399
sS'dalmation'
p5727
I4060
sS'rental'
p5728
I4064
sS'shadows'
p5729
I4068
sS'potatoes'
p5730
I4070
sS'shadowy'
p5731
I1731
sS'detroit'
p5732
I4073
sS'filling'
p5733
I4076
sS'victory'
p5734
I4077
sS'each'
p5735
I1768
sS'wheel'
p5736
I4084
sS'signing'
p5737
I1802
sS'hanger'
p5738
I4086
sS'cloths'
p5739
I3116
sS'gymnasium'
p5740
I1836
sS'waffle'
p5741
I1841
sS'celebrating'
p5742
I4094
sS'hanged'
p5743
I1861
sS'magnets'
p5744
I4096
sS'driving'
p5745
I4100
sS'god'
p5746
I4101
sS'motel'
p5747
I4974
sS'washed'
p5748
I4635
sS'sand'
p5749
I5442
sS'laid'
p5750
I4107
sS'motes'
p5751
I4109
sS'got'
p5752
I1673
sS'washer'
p5753
I4835
sS'washes'
p5754
I4113
sS'arizona'
p5755
I4116
sS'carcass'
p5756
I4118
sS'hang'
p5757
I4463
sS'free'
p5758
I4120
sS'formation'
p5759
I4123
sS'splashes'
p5760
I2045
sS'grasses'
p5761
I4132
sS'days'
p5762
I4133
sS'sandwhiches'
p5763
I4134
sS'outfits'
p5764
I4135
sS'filter'
p5765
I5299
sS'soda'
p5766
I4138
sS'onto'
p5767
I4139
sS'industrial'
p5768
I4141
sS'gazelle'
p5769
I4142
sS'galley'
p5770
I6950
sS'scissors'
p5771
I2246
sS'loaded'
p5772
I6348
sS'toy'
p5773
I4152
sS'their'
p5774
I6954
sS'top'
p5775
I4156
sS'perching'
p5776
I4158
sS'tow'
p5777
I4159
sS'antiques'
p5778
I2297
sS'heights'
p5779
I4161
sS'ton'
p5780
I4162
sS'too'
p5781
I4163
sS'wildly'
p5782
I4164
sS'gowns'
p5783
I5483
sS'toe'
p5784
I4169
sS'urban'
p5785
I4171
sS'ceiling'
p5786
I4172
sS'centered'
p5787
I4704
sS'tool'
p5788
I5287
sS'brushes'
p5789
I4177
sS'leaking'
p5790
I2646
sS'took'
p5791
I4179
sS'ankle'
p5792
I6957
sS'western'
p5793
I4182
sS'wardrobe'
p5794
I4184
sS'brushed'
p5795
I4186
sS'reclining'
p5796
I4190
sS'strung'
p5797
I1992
sS'final'
p5798
I6960
sS'flame'
p5799
I4198
sS'prone'
p5800
I6961
sS'bridge'
p5801
I4205
sS'donkey'
p5802
I4206
sS'fashion'
p5803
I4207
sS'ram'
p5804
I4210
sS'talking'
p5805
I2571
sS'rat'
p5806
I4212
sS'leafs'
p5807
I4214
sS'kiteboard'
p5808
I4216
sS'leafy'
p5809
I4218
sS'seminar'
p5810
I2609
sS'relatively'
p5811
I2611
sS'snow'
p5812
I4224
sS'hatch'
p5813
I4228
sS'rides'
p5814
I4230
sS'rider'
p5815
I4231
sS'though'
p5816
I4236
sS'plenty'
p5817
I4241
sS'coin'
p5818
I4243
sS'glow'
p5819
I4246
sS'peers'
p5820
I4247
sS'treats'
p5821
I4249
sS'partition'
p5822
I4250
sS'metal'
p5823
I4343
sS'jalapenos'
p5824
I2831
sS'orderly'
p5825
I4254
sS'pineapple'
p5826
I4255
sS'entertaining'
p5827
I4257
sS'sanctuary'
p5828
I4261
sS'queen'
p5829
I4263
sS'pops'
p5830
I4265
sS'colors'
p5831
I4266
sS'radio'
p5832
I4268
sS'earth'
p5833
I4269
sS'chewed'
p5834
I4270
sS'excitedly'
p5835
I4277
sS'lodge'
p5836
I4278
sS'highchair'
p5837
I4282
sS'mixture'
p5838
I3054
sS'sunglasses'
p5839
I3059
sS'watch'
p5840
I4286
sS'wedding'
p5841
I4291
sS'frying'
p5842
I4292
sS'fabrics'
p5843
I4295
sS'beads'
p5844
I3143
sS'countries'
p5845
I3157
sS'rowing'
p5846
I3166
sS'licking'
p5847
I4299
sS'plush'
p5848
I2013
sS'34th'
p5849
I5113
sS'shots'
p5850
I4303
sS'automatic'
p5851
I3211
sS'thumbs'
p5852
I4497
sS'liquor'
p5853
I4310
sS'nun'
p5854
I4
sS'noodles'
p5855
I4315
sS'jerseys'
p5856
I4316
sS'grandmother'
p5857
I4327
sS'mud'
p5858
I4328
sS'mug'
p5859
I3361
sS'finger'
p5860
I4332
sS'focal'
p5861
I4334
sS'approach'
p5862
I4336
sS'handwritten'
p5863
I4337
sS'herding'
p5864
I3402
sS'rims'
p5865
I4340
sS'diapers'
p5866
I2022
sS'toothbrush'
p5867
I4346
sS'wear'
p5868
I4348
sS'news'
p5869
I4349
sS'flowering'
p5870
I3460
sS'mule'
p5871
I2024
sS'faced'
p5872
I4354
sS'protect'
p5873
I3068
sS'antelopes'
p5874
I4357
sS'jelly'
p5875
I4361
sS'participating'
p5876
I4362
sS'players'
p5877
I4363
sS'merging'
p5878
I4364
sS'layered'
p5879
I3523
sS'games'
p5880
I4366
sS'faces'
p5881
I2023
sS'towels'
p5882
I4376
sS'majestic'
p5883
I4378
sS'comical'
p5884
I6675
sS'conference'
p5885
I4382
sS'bathroom'
p5886
I4383
sS'beef'
p5887
I5865
sS'bikinis'
p5888
I4386
sS'ropes'
p5889
I4387
sS'been'
p5890
I4388
sS'quickly'
p5891
I4389
sS'submarine'
p5892
I4390
sS'beer'
p5893
I4391
sS'belongs'
p5894
I4510
sS'beet'
p5895
I4393
sS'roped'
p5896
I4396
sS'containers'
p5897
I4397
sS'cranberries'
p5898
I4512
sS'loft'
p5899
I2082
sS'chipped'
p5900
I2033
sS'affixed'
p5901
I4404
sS'craft'
p5902
I4406
sS'rowers'
p5903
I4408
sS'catch'
p5904
I4409
sS'glides'
p5905
I4411
sS'glider'
p5906
I3811
sS'cracker'
p5907
I4417
sS'n'
I3862
sS'teachers'
p5908
I3647
sS'stopping'
p5909
I4422
sS'cracked'
p5910
I4424
sS'pyramid'
p5911
I4429
sS'handrail'
p5912
I4431
sS'dumplings'
p5913
I4432
sS'broth'
p5914
I6742
sS'tress'
p5915
I4435
sS'accessories'
p5916
I4436
sS'exterior'
p5917
I4442
sS'interacts'
p5918
I4443
sS'containing'
p5919
I4444
sS'nike'
p5920
I4017
sS'intersecting'
p5921
I6998
sS'beside'
p5922
I4451
sS'complex'
p5923
I4452
sS'several'
p5924
I4456
sS'moose'
p5925
I1415
sS'peaks'
p5926
I4461
sS'sings'
p5927
I6999
sS'pinstripe'
p5928
I2044
sS'characters'
p5929
I4467
sS'standng'
p5930
I4469
sS'cycle'
p5931
I4470
sS'hearth'
p5932
I4471
sS'ocean'
p5933
I4217
sS'hearty'
p5934
I2134
sS'mother'
p5935
I4481
sS'hearts'
p5936
I4482
sS'jean'
p5937
I4244
sS'shadowed'
p5938
I4485
sS'snowman'
p5939
I4486
sS'assembling'
p5940
I4488
sS'laptop'
p5941
I4493
sS'rodent'
p5942
I4494
sS'transporting'
p5943
I4307
sS'followed'
p5944
I2048
sS'elk'
p5945
I606
sS'teenaged'
p5946
I4347
sS'collars'
p5947
I1117
sS'cherry'
p5948
I1426
sS'elf'
p5949
I4507
sS'teenager'
p5950
I4418
sS'clapping'
p5951
I2053
sS'turquoise'
p5952
I4516
sS'casting'
p5953
I4517
sS'mounds'
p5954
I4519
sS'breaks'
p5955
I3784
sS'descending'
p5956
I4525
sS'judge'
p5957
I4527
sS'burnt'
p5958
I4529
sS'advanced'
p5959
I4530
sS'apart'
p5960
I4513
sS'melting'
p5961
I4532
sS'appearing'
p5962
I4533
sS'gift'
p5963
I4534
sS'55'
p5964
I4541
sS'54'
p5965
I6988
sS'pumps'
p5966
I7468
sS'50'
p5967
I4538
sS'53'
p5968
I4539
sS'mountaintop'
p5969
I7012
sS'officer'
p5970
I5312
sS'hung'
p5971
I4545
sS'petting'
p5972
I4549
sS'proudly'
p5973
I4553
sS'chests'
p5974
I4554
sS'meters'
p5975
I4556
sS'escape'
p5976
I4557
sS'proceeding'
p5977
I4559
sS'ear'
p5978
I7057
sS'ice'
p5979
I4563
sS'rhino'
p5980
I4564
sS'everything'
p5981
I4256
sS'icy'
p5982
I4566
sS'skylight'
p5983
I4568
sS'christmas'
p5984
I4570
sS'mosquito'
p5985
I4542
sS'cord'
p5986
I4572
sS'khaki'
p5987
I4574
sS'corn'
p5988
I4576
sS'cork'
p5989
I4203
sS'lamps'
p5990
I4580
sS'dalmatian'
p5991
I4584
sS'garnished'
p5992
I4585
sS'plug'
p5993
I4878
sS'cowboy'
p5994
I4590
sS'surround'
p5995
I4593
sS'dinner'
p5996
I4595
sS'plus'
p5997
I4597
sS'curry'
p5998
I1706
sS'primitive'
p5999
I4602
sS'plastered'
p6000
I2600
sS'dials'
p6001
I4604
sS'toothpicks'
p6002
I4605
sS'civil'
p6003
I4607
sS'lavishly'
p6004
I4608
sS'fern'
p6005
I2757
sS'finely'
p6006
I4613
sS'bats'
p6007
I4614
sS'coastal'
p6008
I4616
sS'cafeteria'
p6009
I4619
sS'cubicle'
p6010
I4620
sS'rounds'
p6011
I4621
sS'sunlight'
p6012
I4624
sS'class'
p6013
I851
sS'virgin'
p6014
I4626
sS'splash'
p6015
I2069
sS'towing'
p6016
I4628
sS'head'
p6017
I4634
sS'medium'
p6018
I5167
sS'amateur'
p6019
I4636
sS'parasails'
p6020
I4637
sS'gorgeous'
p6021
I6286
sS'removes'
p6022
I4640
sS'wireless'
p6023
I4642
sS'heat'
p6024
I4644
sS'hear'
p6025
I5982
sS'solar'
p6026
I4648
sS'removed'
p6027
I4650
sS'sponge'
p6028
I4651
sS'portions'
p6029
I4652
sS'dollhouse'
p6030
I4655
sS'mannequins'
p6031
I4656
sS'ruined'
p6032
I2776
sS'decorate'
p6033
I4659
sS'eachother'
p6034
I7031
sS'adorn'
p6035
I4665
sS'trim'
p6036
I4666
sS'brightly'
p6037
I4667
sS'cobbled'
p6038
I4668
sS'shines'
p6039
I4676
sS'trip'
p6040
I4679
sS'constructed'
p6041
I4680
sS'looked'
p6042
I7264
sS'outstretched'
p6043
I4683
sS'no'
p6044
I4685
sS'when'
p6045
I771
sS'tin'
p6046
I4691
sS'setting'
p6047
I5482
sS'papers'
p6048
I4695
sS'tie'
p6049
I4697
sS'orchid'
p6050
I4558
sS'evergreen'
p6051
I4700
sS'picture'
p6052
I4701
sS'grasps'
p6053
I4702
sS'football'
p6054
I1846
sS'miscellaneous'
p6055
I4707
sS'trailers'
p6056
I4708
sS'flushed'
p6057
I4710
sS'younger'
p6058
I4714
sS'radishes'
p6059
I4715
sS'longer'
p6060
I4716
sS'bullet'
p6061
I4717
sS'navel'
p6062
I4718
sS'vigorously'
p6063
I4719
sS'yacht'
p6064
I4720
sS'uncovered'
p6065
I5638
sS'serious'
p6066
I4726
sS'backward'
p6067
I4727
sS'stacks'
p6068
I4728
sS'coach'
p6069
I5698
sS'remarkable'
p6070
I4730
sS'particular'
p6071
I4732
sS'rod'
p6072
I4733
sS'focus'
p6073
I4734
sS'leads'
p6074
I4737
sS'displaying'
p6075
I5752
sS'row'
p6076
I4741
sS'protest'
p6077
I4743
sS'essentials'
p6078
I4746
sS'contemplating'
p6079
I4751
sS'passage'
p6080
I5807
sS'environment'
p6081
I4753
sS'charge'
p6082
I4755
sS'melon'
p6083
I4758
sS'stove'
p6084
I7044
sS'advantage'
p6085
I4763
sS'sloppy'
p6086
I4766
sS'nesting'
p6087
I4769
sS'tanks'
p6088
I4770
sS'artwork'
p6089
I1714
sS'cook'
p6090
I4772
sS'cool'
p6091
I4774
sS'tortillas'
p6092
I4776
sS'clouds'
p6093
I4777
sS'impressive'
p6094
I4778
sS'level'
p6095
I1306
sS'posts'
p6096
I4781
sS'brother'
p6097
I5967
sS'cloudy'
p6098
I5968
sS'science'
p6099
I7362
sS'quick'
p6100
I4789
sS'dries'
p6101
I4794
sS'says'
p6102
I4796
sS'dried'
p6103
I4798
sS'takeoff'
p6104
I4799
sS'bake'
p6105
I4800
sS'bales'
p6106
I4801
sS'port'
p6107
I4802
sS'drinks'
p6108
I4803
sS'stately'
p6109
I299
sS'unripe'
p6110
I4807
sS'spire'
p6111
I6142
sS'tarmac'
p6112
I4768
sS'goes'
p6113
I4813
sS'hairy'
p6114
I4815
sS'water'
p6115
I4819
sS'baseball'
p6116
I6241
sS'groups'
p6117
I4822
sS'unidentified'
p6118
I4831
sS'sheriff'
p6119
I7060
sS'healthy'
p6120
I4836
sS'pearls'
p6121
I4837
sS'marble'
p6122
I2314
sS'stomachs'
p6123
I4840
sS'cinnamon'
p6124
I4842
sS'weird'
p6125
I4845
sS'entrees'
p6126
I4846
sS'lowers'
p6127
I4848
sS'tuxedo'
p6128
I4852
sS'scarves'
p6129
I4582
sS'bulbs'
p6130
I6442
sS'vivid'
p6131
I5400
sS'sports'
p6132
I4864
sS'handles'
p6133
I6491
sS'handler'
p6134
I6494
sS'prey'
p6135
I4867
sS'iphone'
p6136
I4868
sS'frothy'
p6137
I4869
sS'memory'
p6138
I4870
sS'australian'
p6139
I4872
sS'prep'
p6140
I4874
sS'today'
p6141
I4875
sS'smeared'
p6142
I4877
sS'conductor'
p6143
I4882
sS'clicking'
p6144
I5864
sS'chocolate'
p6145
I6569
sS'employee'
p6146
I7069
sS'beers'
p6147
I4889
sS'flapping'
p6148
I4890
sS'cases'
p6149
I4893
sS'surfs'
p6150
I7070
sS'states'
p6151
I4896
sS'edible'
p6152
I4900
sS'thousands'
p6153
I7071
sS'modified'
p6154
I4904
sS'ferry'
p6155
I6680
sS'meatball'
p6156
I4911
sS'gazelles'
p6157
I4912
sS'pickle'
p6158
I4913
sS'newspapers'
p6159
I7433
sS'streak'
p6160
I4916
sS'overpass'
p6161
I6634
sS'performer'
p6162
I4919
sS'nursing'
p6163
I6711
sS'figure'
p6164
I4921
sS'tinted'
p6165
I4925
sS'dropped'
p6166
I4927
sS'wiimote'
p6167
I6768
sS'hydrogen'
p6168
I1318
sS'sailboat'
p6169
I4934
sS'secured'
p6170
I5820
sS'1'
I3555
sS'refridgerator'
p6171
I4941
sS'cardinal'
p6172
I4942
sS'fourth'
p6173
I4943
sS'speaks'
p6174
I4944
sS'flavored'
p6175
I6870
sS'cocktail'
p6176
I1055
sS'huge'
p6177
I4949
sS'motorists'
p6178
I1584
sS'crashed'
p6179
I6923
sS'birthday'
p6180
I6929
sS'tipped'
p6181
I4956
sS'wakeboarder'
p6182
I4957
sS'floral'
p6183
I4959
sS'wagging'
p6184
I4960
sS'classroom'
p6185
I4962
sS'branches'
p6186
I935
sS'liquid'
p6187
I4965
sS'lagoon'
p6188
I4971
sS'hilltop'
p6189
I4972
sS'shinning'
p6190
I4973
sS'rye'
p6191
I7013
sS'furnished'
p6192
I4979
sS'mainly'
p6193
I7077
sS'ducklings'
p6194
I4984
sS'blocked'
p6195
I6472
sS'courthouse'
p6196
I4993
sS'maps'
p6197
I4995
sS'appetizers'
p6198
I7155
sS'platform'
p6199
I5001
sS'offers'
p6200
I5003
sS'farmer'
p6201
I5005
sS'swans'
p6202
I5007
sS'puzzle'
p6203
I5009
sS'whirlpool'
p6204
I5010
sS'lonely'
p6205
I5012
sS'underneath'
p6206
I5015
sS'bath'
p6207
I5970
sS'gushing'
p6208
I5024
sS'wagon'
p6209
I5986
sS'name'
p6210
I5027
sS'corners'
p6211
I7313
sS'realistic'
p6212
I5032
sS'individually'
p6213
I5036
sS'trunks'
p6214
I773
sS'populated'
p6215
I5040
sS'sprinkle'
p6216
I2143
sS'catching'
p6217
I5046
sS'zebra'
p6218
I7437
sS'sunrise'
p6219
I7458
sS'intended'
p6220
I2144
sS'tulips'
p6221
I5059
sS'factory'
p6222
I5060
sS'coolers'
p6223
I5066
sS'overflowing'
p6224
I7097
sS'clover'
p6225
I5110
sS'attended'
p6226
I5069
sS'hula'
p6227
I5070
sS'flyer'
p6228
I5073
sS'skillfully'
p6229
I5074
sS'grab'
p6230
I7099
sS'roosters'
p6231
I6684
sS'motion'
p6232
I5085
sS'turn'
p6233
I5086
sS'butterflies'
p6234
I5087
sS'place'
p6235
I444
sS'swing'
p6236
I5089
sS'turf'
p6237
I5091
sS'saucers'
p6238
I6915
sS'teammates'
p6239
I5095
sS'pelican'
p6240
I5098
sS'rafts'
p6241
I7103
sS'parasols'
p6242
I5105
sS'soaring'
p6243
I5106
sS'array'
p6244
I6884
sS'engineer'
p6245
I298
sS'given'
p6246
I302
sS'district'
p6247
I5117
sS'stuck'
p6248
I5118
sS'plastic'
p6249
I5557
sS'cooling'
p6250
I5129
sS'arcade'
p6251
I7217
sS'convention'
p6252
I5127
sS'white'
p6253
I5128
sS'gives'
p6254
I5132
sS'exploring'
p6255
I5133
sS'hug'
p6256
I5134
sS'season'
p6257
I411
sS'stylized'
p6258
I5139
sS'released'
p6259
I4754
sS'copy'
p6260
I992
sS'holder'
p6261
I5143
sS'wide'
p6262
I486
sS'oats'
p6263
I5149
sS'r'
I3660
sS'cards'
p6264
I5155
sS'chugs'
p6265
I5156
sS'powder'
p6266
I7112
sS'and'
p6267
I5159
sS'register'
p6268
I2189
sS'ana'
p6269
I5161
sS'pro'
p6270
I601
sS'medical'
p6271
I2116
sS'mates'
p6272
I5972
sS'rent'
p6273
I76
sS'ans'
p6274
I6032
sS'exchanging'
p6275
I5170
sS'steers'
p6276
I5171
sS'sells'
p6277
I6517
sS'any'
p6278
I5174
sS'marathon'
p6279
I917
sS'deserted'
p6280
I5176
sS'silhouette'
p6281
I5177
sS'dining'
p6282
I712
sS'animation'
p6283
I5183
sS'thermometer'
p6284
I723
sS'resembling'
p6285
I5186
sS'surf'
p6286
I5188
sS'sure'
p6287
I5190
sS'multiple'
p6288
I5191
sS'equestrian'
p6289
I5192
sS'surfboarders'
p6290
I5193
sS'falls'
p6291
I5196
sS'boiling'
p6292
I5197
sS'donation'
p6293
I5198
sS'net'
p6294
I5201
sS'cleared'
p6295
I820
sS'pencils'
p6296
I5204
sS'seafood'
p6297
I5207
sS'later'
p6298
I5208
sS'hungry'
p6299
I5209
sS'atvs'
p6300
I5210
sS'beaded'
p6301
I5212
sS'senior'
p6302
I5216
sS'cuddled'
p6303
I5217
sS'sculpted'
p6304
I924
sS'quantity'
p6305
I5220
sS'slope'
p6306
I5221
sS'perch'
p6307
I5222
sS'convoy'
p6308
I5223
sS'recipe'
p6309
I963
sS'spaces'
p6310
I5228
sS'trot'
p6311
I3819
sS'gull'
p6312
I5237
sS'state'
p6313
I7124
sS'winged'
p6314
I2176
sS'wood'
p6315
I5242
sS'believing'
p6316
I5243
sS'wool'
p6317
I7295
sS'icebox'
p6318
I5246
sS'lighted'
p6319
I1780
sS'begging'
p6320
I5250
sS'lighter'
p6321
I2110
sS'dye'
p6322
I5256
sS'hedge'
p6323
I5257
sS'installed'
p6324
I2178
sS'reveal'
p6325
I5260
sS'skewered'
p6326
I5261
sS'aluminum'
p6327
I5262
sS'joker'
p6328
I1983
sS'penguins'
p6329
I2424
sS'clowns'
p6330
I5267
sS'dough'
p6331
I2180
sS'bought'
p6332
I5604
sS'discussing'
p6333
I5270
sS'microphones'
p6334
I5273
sS'reveals'
p6335
I5274
sS'picnic'
p6336
I5275
sS'college'
p6337
I1345
sS'parking'
p6338
I5281
sS'surfaces'
p6339
I4617
sS'bicyclist'
p6340
I327
sS'crooked'
p6341
I5286
sS'spoons'
p6342
I5290
sS'outside'
p6343
I2906
sS'arrival'
p6344
I5296
sS'25'
p6345
I2191
sS'guitar'
p6346
I5300
sS'diners'
p6347
I5302
sS'20'
p6348
I4677
sS'cities'
p6349
I1558
sS'come'
p6350
I5305
sS'wanders'
p6351
I1587
sS'efficiency'
p6352
I7138
sS'region'
p6353
I5310
sS'quiet'
p6354
I7090
sS'berry'
p6355
I5313
sS'railway'
p6356
I2955
sS'duty'
p6357
I5317
sS'key'
p6358
I7141
sS'bricks'
p6359
I5320
sS'armchair'
p6360
I2734
sS'pot'
p6361
I5322
sS'hunched'
p6362
I2633
sS'period'
p6363
I1703
sS'pop'
p6364
I5325
sS'sampling'
p6365
I5326
sS'broccolli'
p6366
I5327
sS'pole'
p6367
I5328
sS'jammed'
p6368
I5330
sS'66'
p6369
I1735
sS'polo'
p6370
I5332
sS'pod'
p6371
I5334
sS'poll'
p6372
I5335
sS'raring'
p6373
I5338
sS'turkey'
p6374
I5339
sS'teammate'
p6375
I1774
sS'coupe'
p6376
I5344
sS'peaceful'
p6377
I5347
sS'helicopter'
p6378
I5348
sS'cords'
p6379
I1843
sS'ravioli'
p6380
I5350
sS'peaking'
p6381
I5352
sS'direction'
p6382
I5353
sS'tiger'
p6383
I5357
sS'eatery'
p6384
I5358
sS'cresting'
p6385
I2832
sS'standup'
p6386
I5363
sS'attentive'
p6387
I5365
sS'pilot'
p6388
I5367
sS'paying'
p6389
I1958
sS'wineglasses'
p6390
I5370
sS'mount'
p6391
I5372
sS'twigs'
p6392
I5373
sS'cash'
p6393
I5374
sS'cast'
p6394
I5376
sS'shops'
p6395
I2032
sS'slippers'
p6396
I5379
sS'vest'
p6397
I5380
sS'candies'
p6398
I5382
sS'telephone'
p6399
I5387
sS'couples'
p6400
I5388
sS'someone'
p6401
I5389
sS'clutter'
p6402
I2107
sS'helmet'
p6403
I5398
sS'projector'
p6404
I6461
sS'bowl'
p6405
I5403
sS'check'
p6406
I5405
sS'bows'
p6407
I2198
sS'macaroni'
p6408
I5409
sS'isle'
p6409
I3846
sS'barefoot'
p6410
I5419
sS'booths'
p6411
I5420
sS'nest'
p6412
I2260
sS'driver'
p6413
I5425
sS'drives'
p6414
I1598
sS'weed'
p6415
I1944
sS'driven'
p6416
I5429
sS'persons'
p6417
I5430
sS'delicate'
p6418
I2289
sS'statue'
p6419
I5435
sS'changing'
p6420
I5437
sS'cartoon'
p6421
I5438
sS'implements'
p6422
I5439
sS'omelette'
p6423
I5440
sS'pennsylvania'
p6424
I2339
sS'ranch'
p6425
I5445
sS'without'
p6426
I1505
sS'flakes'
p6427
I5447
sS'components'
p6428
I5448
sS'deflated'
p6429
I5449
sS'model'
p6430
I5451
sS'bodies'
p6431
I5452
sS'desolate'
p6432
I5454
sS'captures'
p6433
I2428
sS'guided'
p6434
I5458
sS'kilt'
p6435
I2501
sS'lavish'
p6436
I2450
sS'kill'
p6437
I5462
sS'polish'
p6438
I5026
sS'satin'
p6439
I1294
sS'guides'
p6440
I2485
sS'captured'
p6441
I5468
sS'halfway'
p6442
I5469
sS'blow'
p6443
I5470
sS'womans'
p6444
I5473
sS'rose'
p6445
I5475
sS'seems'
p6446
I5476
sS'except'
p6447
I5477
sS'pallet'
p6448
I128
sS'lets'
p6449
I5481
sS'interested'
p6450
I4818
sS'samples'
p6451
I5484
sS'hind'
p6452
I5485
sS'poised'
p6453
I5486
sS'styles'
p6454
I5090
sS'holding'
p6455
I6737
sS'fridge'
p6456
I5493
sS'test'
p6457
I5497
sS'styled'
p6458
I5500
sS'confined'
p6459
I5501
sS'color'
p6460
I5801
sS'sheared'
p6461
I2672
sS'depot'
p6462
I5507
sS'standstill'
p6463
I3073
sS'bracelet'
p6464
I1443
sS'oddly'
p6465
I5515
sS'tower'
p6466
I5724
sS'simulator'
p6467
I2792
sS'pacific'
p6468
I2796
sS'cowboys'
p6469
I5525
sS'freez'
p6470
I5527
sS'slice'
p6471
I5528
sS'bento'
p6472
I5532
sS'shirtless'
p6473
I5533
sS'longboard'
p6474
I5534
sS'stops'
p6475
I5535
sS'moon'
p6476
I5536
sS'buddha'
p6477
I61
sS'provides'
p6478
I5540
sS'diced'
p6479
I5542
sS'eiffel'
p6480
I5543
sS'beached'
p6481
I5547
sS'nails'
p6482
I3414
sS'inspect'
p6483
I5549
sS'wades'
p6484
I3011
sS'jeep'
p6485
I5561
sS'of'
p6486
I2118
sS'shrimp'
p6487
I2274
sS'stand'
p6488
I5568
sS'ox'
p6489
I4784
sS'os'
p6490
I5570
sS'or'
p6491
I3104
sS'ladies'
p6492
I5573
sS'instruments'
p6493
I5574
sS'wildebeests'
p6494
I5575
sS'garb'
p6495
I5576
sS'rising'
p6496
I4709
sS'bends'
p6497
I5584
sS'buds'
p6498
I3196
sS'there'
p6499
I5592
sS'ferris'
p6500
I3624
sS'valley'
p6501
I3272
sS'fish'
p6502
I5602
sS'jug'
p6503
I4276
sS'kittens'
p6504
I5606
sS'amongst'
p6505
I5610
sS'cabinet'
p6506
I5611
sS'slushy'
p6507
I1076
sS'applying'
p6508
I5619
sS'anchovies'
p6509
I5622
sS'$$E$$'
p6510
I7481
sS'grass'
p6511
I5624
sS'toilet'
p6512
I5625
sS'toiler'
p6513
I5628
sS'taste'
p6514
I5629
sS'protrudes'
p6515
I5630
sS'toiled'
p6516
I5634
sS'tasty'
p6517
I5635
sS'beds'
p6518
I7423
sS'bicycling'
p6519
I7161
sS'swords'
p6520
I3566
sS'rubber'
p6521
I5645
sS'roses'
p6522
I5646
sS'5'
I5648
sS'trash'
p6523
I5651
sS'camouflaged'
p6524
I5652
sS'pillows'
p6525
I5657
sS'motorcylce'
p6526
I3640
sS'symbol'
p6527
I5659
sS'midair'
p6528
I3032
sS'cove'
p6529
I3656
sS'includes'
p6530
I5663
sS'brass'
p6531
I3691
sS'lipstick'
p6532
I5670
sS'calls'
p6533
I5673
sS'wife'
p6534
I5674
sS'curve'
p6535
I5675
sS'curvy'
p6536
I5678
sS'rimmed'
p6537
I5679
sS'apparel'
p6538
I5681
sS'peeks'
p6539
I5682
sS'platter'
p6540
I5683
sS'transports'
p6541
I5684
sS'crumpled'
p6542
I3795
sS'lace'
p6543
I6939
sS'chinese'
p6544
I3369
sS'ale'
p6545
I3818
sS'parakeets'
p6546
I5693
sS'ladders'
p6547
I5695
sS'executing'
p6548
I5696
sS'surgical'
p6549
I5697
sS'disc'
p6550
I3842
sS'parmesan'
p6551
I5006
sS'dish'
p6552
I3598
sS'follow'
p6553
I3861
sS'disk'
p6554
I5703
sS'apartment'
p6555
I6391
sS'lining'
p6556
I5708
sS'sparkling'
p6557
I5710
sS'program'
p6558
I3934
sS'dairy'
p6559
I5712
sS'siblings'
p6560
I1487
sS'crest'
p6561
I3952
sS'tethered'
p6562
I5715
sS'activities'
p6563
I5717
sS'woman'
p6564
I5718
sS'song'
p6565
I1045
sS'far'
p6566
I3986
sS'grinds'
p6567
I5721
sS'fat'
p6568
I5723
sS'sons'
p6569
I4021
sS'fan'
p6570
I4026
sS'awful'
p6571
I5727
sS'sony'
p6572
I5728
sS'bubbles'
p6573
I4039
sS'wilting'
p6574
I5730
sS'towers'
p6575
I5732
sS'grandfather'
p6576
I5734
sS'trench'
p6577
I5735
sS'cluttered'
p6578
I5737
sS'teh'
p6579
I5740
sS'ten'
p6580
I4153
sS'tea'
p6581
I5743
sS'reins'
p6582
I5745
sS'tee'
p6583
I4180
sS'design'
p6584
I5747
sS'cheeses'
p6585
I5749
sS'what'
p6586
I5750
sS'sub'
p6587
I2744
sS'sun'
p6588
I2797
sS'crust'
p6589
I5754
sS'brief'
p6590
I4264
sS'suv'
p6591
I5757
sS'version'
p6592
I5758
sS'racing'
p6593
I5760
sS'guns'
p6594
I5761
sS'multitude'
p6595
I5762
sS'sunbathers'
p6596
I3129
sS'toes'
p6597
I5764
sS'tags'
p6598
I5766
sS'directions'
p6599
I5773
sS'observing'
p6600
I5775
sS'mmm'
p6601
I2147
sS'naval'
p6602
I4413
sS'handlers'
p6603
I5781
sS'siamese'
p6604
I5782
sS'allows'
p6605
I4433
sS'terminals'
p6606
I5785
sS'cucumbers'
p6607
I3276
sS'miniature'
p6608
I3511
sS'milkshake'
p6609
I5789
sS'options'
p6610
I5793
sS'sticking'
p6611
I4437
sS'guacamole'
p6612
I5796
sS'screens'
p6613
I5799
sS'texts'
p6614
I5800
sS'armoire'
p6615
I888
sS'appliances'
p6616
I4550
sS'proceed'
p6617
I4586
sS'donuts'
p6618
I5811
sS'flowered'
p6619
I5813
sS'rustic'
p6620
I5814
sS'garnish'
p6621
I5817
sS'markets'
p6622
I4654
sS'minor'
p6623
I5819
sS'horses'
p6624
I1218
sS'flat'
p6625
I5822
sS'grabbing'
p6626
I5824
sS'owners'
p6627
I2280
sS'flag'
p6628
I5828
sS'stick'
p6629
I5829
sS'pews'
p6630
I5836
sS'sleeveless'
p6631
I5837
sS'policemen'
p6632
I5838
sS'wrestler'
p6633
I5842
sS'v'
I5843
sS'layed'
p6634
I7212
sS'protestors'
p6635
I4760
sS'pony'
p6636
I5848
sS'sectioned'
p6637
I5852
sS'urinals'
p6638
I5855
sS'pond'
p6639
I5858
sS'pong'
p6640
I4931
sS'swung'
p6641
I5860
sS'offspring'
p6642
I4939
sS'extinguisher'
p6643
I92
sS'court'
p6644
I5866
sS'goal'
p6645
I5867
sS'rather'
p6646
I5869
sS'breaking'
p6647
I5871
sS'speeding'
p6648
I5874
sS'goat'
p6649
I5875
sS'tinfoil'
p6650
I5876
sS'sandwich'
p6651
I5878
sS'reflect'
p6652
I5880
sS'panoramic'
p6653
I5881
sS'lighting'
p6654
I5883
sS'vegan'
p6655
I4765
sS'softball'
p6656
I5885
sS'concentrating'
p6657
I5888
sS'short'
p6658
I5892
sS'shady'
p6659
I5894
sS'departure'
p6660
I1255
sS'footed'
p6661
I5896
sS'shore'
p6662
I5897
sS'shade'
p6663
I5899
sS'shorn'
p6664
I5902
sS'maneuver'
p6665
I5903
sS'encased'
p6666
I5206
sS'handlebars'
p6667
I5234
sS"don't"
p6668
I5910
sS'developed'
p6669
I5911
sS'disabled'
p6670
I5917
sS'avenue'
p6671
I6008
sS'style'
p6672
I5922
sS'glide'
p6673
I934
sS'sale'
p6674
I5600
sS'mattress'
p6675
I2530
sS'resort'
p6676
I5927
sS'blenders'
p6677
I5346
sS'soccer'
p6678
I5931
sS'might'
p6679
I5932
sS'alter'
p6680
I5933
sS'somebody'
p6681
I5393
sS'sucking'
p6682
I5397
sS'hoping'
p6683
I5823
sS'clippers'
p6684
I5941
sS'underground'
p6685
I7229
sS'witting'
p6686
I5944
sS'hairdryer'
p6687
I5949
sS'bigger'
p6688
I5950
sS'instructions'
p6689
I5951
sS'policeman'
p6690
I6973
sS'cobblestones'
p6691
I4823
sS'snowboarders'
p6692
I5958
sS'letting'
p6693
I5959
sS'jetway'
p6694
I5582
sS'pirates'
p6695
I5964
sS'weight'
p6696
I5965
sS'fixture'
p6697
I5607
sS'scratching'
p6698
I5969
sS'alcohol'
p6699
I5976
sS'join'
p6700
I5977
sS'linens'
p6701
I5978
sS'dugout'
p6702
I5981
sS'health'
p6703
I1002
sS'hill'
p6704
I5984
sS'remodeling'
p6705
I5988
sS'caucasian'
p6706
I5989
sS'roofs'
p6707
I5995
sS'tractors'
p6708
I5999
sS'cookie'
p6709
I6002
sS'teach'
p6710
I5808
sS'sidewalk'
p6711
I4970
sS'thrown'
p6712
I4048
sS'thread'
p6713
I6011
sS'snowboarding'
p6714
I6017
sS'fallen'
p6715
I6018
sS'throws'
p6716
I6019
sS'bushel'
p6717
I6020
sS'feed'
p6718
I6021
sS'dine'
p6719
I6022
sS'feel'
p6720
I6023
sS'pork'
p6721
I6659
sS'fancy'
p6722
I6026
sS'traveled'
p6723
I6027
sS'feet'
p6724
I6028
sS'sailor'
p6725
I6030
sS'blank'
p6726
I6035
sS'traveler'
p6727
I6036
sS'soaps'
p6728
I6039
sS'idea'
p6729
I6041
sS'passes'
p6730
I6042
sS'story'
p6731
I5997
sS'temperature'
p6732
I6044
sS'gourmet'
p6733
I5014
sS'leading'
p6734
I2523
sS'interact'
p6735
I6048
sS'comfy'
p6736
I4130
sS'rails'
p6737
I4843
sS'collar'
p6738
I7244
sS'stork'
p6739
I6291
sS'passed'
p6740
I6056
sS'syrup'
p6741
I6059
sS'outcropping'
p6742
I1698
sS'store'
p6743
I6061
sS'gps'
p6744
I6062
sS'attendants'
p6745
I6063
sS'hotel'
p6746
I6067
sS'rifle'
p6747
I6069
sS'uncut'
p6748
I6070
sS'reflection'
p6749
I7247
sS'king'
p6750
I6162
sS'kind'
p6751
I6163
sS'double'
p6752
I6076
sS'instruction'
p6753
I6192
sS'aims'
p6754
I6079
sS'stall'
p6755
I6082
sS'stalk'
p6756
I6083
sS'outdoors'
p6757
I6084
sS'dispenser'
p6758
I6085
sS'cleaner'
p6759
I3424
sS'uniforms'
p6760
I6089
sS'skyscrapers'
p6761
I6090
sS'alike'
p6762
I5108
sS'cleaned'
p6763
I6096
sS'rugs'
p6764
I4262
sS'cropped'
p6765
I6373
sS'sandwiches'
p6766
I6108
sS'finding'
p6767
I6109
sS'added'
p6768
I6425
sS'electric'
p6769
I6111
sS'reach'
p6770
I6115
sS'react'
p6771
I6117
sS'cigarette'
p6772
I6118
sS'storefronts'
p6773
I744
sS'nothing'
p6774
I6122
sS'stands'
p6775
I2250
sS'patterned'
p6776
I6125
sS'draped'
p6777
I6126
sS'windows'
p6778
I6518
sS'doggie'
p6779
I6129
sS'traditional'
p6780
I4173
sS'part'
p6781
I6132
sS'lying'
p6782
I6580
sS'stones'
p6783
I6137
sS'loveseat'
p6784
I6139
sS'asphalt'
p6785
I6140
sS'focusing'
p6786
I2328
sS'cds'
p6787
I6145
sS'unwrapped'
p6788
I6650
sS'font'
p6789
I6147
sS'gilded'
p6790
I6670
sS'deserts'
p6791
I6150
sS'camel'
p6792
I7266
sS'grazes'
p6793
I6154
sS'atv'
p6794
I6157
sS'hip'
p6795
I6158
sS'shepherd'
p6796
I6159
sS'his'
p6797
I6160
sS'triangle'
p6798
I4221
sS'saluting'
p6799
I780
sS'banquet'
p6800
I2241
sS'nibbles'
p6801
I6176
sS'investigate'
p6802
I6892
sS'cartoons'
p6803
I6182
sS'activity'
p6804
I6183
sS'wheeling'
p6805
I6185
sS'engraved'
p6806
I6186
sS'snowstorm'
p6807
I6187
sS'wrote'
p6808
I6188
sS'bars'
p6809
I6191
sS'art'
p6810
I6193
sS'skills'
p6811
I6194
sS'barb'
p6812
I6196
sS'bare'
p6813
I6197
sS'are'
p6814
I6198
sS'bark'
p6815
I6200
sS'arm'
p6816
I6201
sS'barn'
p6817
I6202
sS'recording'
p6818
I5877
sS'learns'
p6819
I6205
sS'nailed'
p6820
I7038
sS'nutella'
p6821
I6208
sS'unpaved'
p6822
I6209
sS'drooping'
p6823
I6210
sS'creme'
p6824
I4200
sS'various'
p6825
I6212
sS'plywood'
p6826
I6213
sS'overstuffed'
p6827
I2137
sS'rared'
p6828
I6218
sS'paisley'
p6829
I6219
sS'recently'
p6830
I6220
sS'creating'
p6831
I7115
sS'sold'
p6832
I6223
sS'attention'
p6833
I6224
sS'outfit'
p6834
I6226
sS'lap'
p6835
I7181
sS'bronze'
p6836
I6232
sS'orphanage'
p6837
I6234
sS'blazer'
p6838
I6235
sS'license'
p6839
I6237
sS'roman'
p6840
I6238
sS'finds'
p6841
I7254
sS'flies'
p6842
I1655
sS'sweet'
p6843
I6248
sS'village'
p6844
I6252
sS'crispy'
p6845
I6255
sS'goats'
p6846
I7345
sS'suspenders'
p6847
I6258
sS'steeples'
p6848
I6262
sS'political'
p6849
I6263
sS'due'
p6850
I6264
sS'peeler'
p6851
I4828
sS'whom'
p6852
I6267
sS'pf'
p6853
I6268
sS'orioles'
p6854
I5672
sS'pm'
p6855
I6275
sS'affectionate'
p6856
I6276
sS'siting'
p6857
I6277
sS'referee'
p6858
I7447
sS'flight'
p6859
I7448
sS'pedals'
p6860
I4830
sS'firefighters'
p6861
I6282
sS'rocking'
p6862
I6287
sS'instructor'
p6863
I6288
sS'plants'
p6864
I6290
sS'pedestrian'
p6865
I6296
sS'frozen'
p6866
I6297
sS'batch'
p6867
I6299
sS'parachutes'
p6868
I2913
sS'barricade'
p6869
I6303
sS'moustache'
p6870
I109
sS'knob'
p6871
I7289
sS'demon'
p6872
I6314
sS'leans'
p6873
I6315
sS'rim'
p6874
I4592
sS'nightstand'
p6875
I6319
sS'rig'
p6876
I6321
sS'shirt'
p6877
I1544
sS'parading'
p6878
I215
sS'fading'
p6879
I2352
sS'delicious'
p6880
I6325
sS'kimono'
p6881
I6326
sS'peoples'
p6882
I256
sS'9'
I6328
sS'spears'
p6883
I6329
sS'daughters'
p6884
I6330
sS'sliver'
p6885
I6144
sS'arrives'
p6886
I281
sS'paths'
p6887
I2355
sS'flows'
p6888
I305
sS'holidays'
p6889
I6341
sS'patriotic'
p6890
I6342
sS'flown'
p6891
I6343
sS'moving'
p6892
I1740
sS'lower'
p6893
I6349
sS'noodle'
p6894
I6350
sS'cheek'
p6895
I6352
sS'bounces'
p6896
I3022
sS'cheer'
p6897
I6357
sS'edge'
p6898
I6358
sS'machinery'
p6899
I6359
sS'stating'
p6900
I6362
sS'hotdog'
p6901
I446
sS'knot'
p6902
I6366
sS'pigeons'
p6903
I6368
sS'competitive'
p6904
I6370
sS'prince'
p6905
I532
sS'tables'
p6906
I6379
sS'loading'
p6907
I6380
sS'tablet'
p6908
I6381
sS'workers'
p6909
I6382
sS'exhibition'
p6910
I6388
sS'customers'
p6911
I2809
sS'vendor'
p6912
I6543
sS'dvds'
p6913
I6394
sS'sittin'
p6914
I6396
sS'spires'
p6915
I6397
sS'doorways'
p6916
I7306
sS'inspects'
p6917
I6403
sS'seperate'
p6918
I6404
sS'shaped'
p6919
I6407
sS'airshow'
p6920
I6408
sS'shapes'
p6921
I6412
sS'collect'
p6922
I6413
sS'streaming'
p6923
I6423
sS'litter'
p6924
I855
sS'marmalade'
p6925
I859
sS'clown'
p6926
I7309
sS'wonderland'
p6927
I6428
sS'sauces'
p6928
I6430
sS'saucer'
p6929
I6431
sS'sized'
p6930
I7311
sS'prop'
p6931
I6435
sS'retro'
p6932
I6436
sS'tends'
p6933
I6437
sS'contrasting'
p6934
I6440
sS'#OOV#'
p6935
I0
sS'bookshelves'
p6936
I1010
sS'perpendicular'
p6937
I5082
sS'zombie'
p6938
I6449
sS'aloft'
p6939
I6450
sS'intense'
p6940
I6460
sS'handled'
p6941
I4863
sS'pipeline'
p6942
I6463
sS'kitchenette'
p6943
I6465
sS'completing'
p6944
I6466
sS'plaza'
p6945
I6467
sS'wineglass'
p6946
I3426
sS'surfers'
p6947
I6469
sS'range'
p6948
I6470
sS'greets'
p6949
I6471
sS'plethora'
p6950
I6477
sS'momma'
p6951
I6482
sS'iwth'
p6952
I6245
sS'couches'
p6953
I6486
sS'canal'
p6954
I6487
sS'rows'
p6955
I6488
sS'question'
p6956
I2654
sS'fast'
p6957
I1295
sS'vendors'
p6958
I6493
sS'sections'
p6959
I6496
sS'files'
p6960
I6497
sS'mountains'
p6961
I6498
sS'skewers'
p6962
I6500
sS'raisins'
p6963
I2691
sS'cloth'
p6964
I6504
sS'delta'
p6965
I1428
sS'upright'
p6966
I1433
sS'crane'
p6967
I6509
sS'deployed'
p6968
I4339
sS'penguin'
p6969
I6512
sS'consist'
p6970
I1471
sS'landscaped'
p6971
I6515
sS'fries'
p6972
I6516
sS'fried'
p6973
I6880
sS'called'
p6974
I6522
sS'soars'
p6975
I6526
sS'sepia'
p6976
I6527
sS'warning'
p6977
I6529
sS'crepes'
p6978
I6531
sS'rally'
p6979
I6533
sS'graham'
p6980
I6534
sS'rainbow'
p6981
I1638
sS'rainy'
p6982
I6537
sS'lemon'
p6983
I6538
sS'peach'
p6984
I1653
sS'rains'
p6985
I1659
sS'peace'
p6986
I6541
sS'backs'
p6987
I6542
sS'grouped'
p6988
I1683
sS'parlor'
p6989
I1685
sS'mock'
p6990
I6550
sS'nice'
p6991
I1729
sS'mustard'
p6992
I6555
sS'breasts'
p6993
I6558
sS'helping'
p6994
I6560
sS'donkeys'
p6995
I6561
sS'generated'
p6996
I5414
sS'wakeboarding'
p6997
I6564
sS'allowing'
p6998
I6565
sS'posters'
p6999
I6567
sS'pottery'
p7000
I6571
sS'attacking'
p7001
I6575
sS'waxing'
p7002
I6577
sS'nasa'
p7003
I6578
sS'thames'
p7004
I6579
sS'buffalo'
p7005
I6582
sS'once'
p7006
I6584
sS'wrestle'
p7007
I6585
sS'unripened'
p7008
I6390
sS'alien'
p7009
I1971
sS'windy'
p7010
I686
sS'gang'
p7011
I6592
sS'winds'
p7012
I758
sS'magnifying'
p7013
I6596
sS'cupboards'
p7014
I6597
sS'gold'
p7015
I6600
sS'peering'
p7016
I5301
sS'floss'
p7017
I7346
sS'languages'
p7018
I6605
sS'squeezing'
p7019
I7471
sS'stable'
p7020
I6609
sS'include'
p7021
I2095
sS'fences'
p7022
I6612
sS'rag'
p7023
I6614
sS'ladle'
p7024
I1438
sS'spool'
p7025
I6620
sS'spoon'
p7026
I6621
sS'wishes'
p7027
I2166
sS'drinking'
p7028
I6626
sS'notes'
p7029
I3367
sS'smaller'
p7030
I3243
sS'gripping'
p7031
I6637
sS'goodies'
p7032
I6639
sS'wrestling'
p7033
I6641
sS'procession'
p7034
I6642
sS'fold'
p7035
I2334
sS'traveling'
p7036
I7175
sS'hummingbird'
p7037
I5407
sS'checkers'
p7038
I2384
sS'showcase'
p7039
I2392
sS'waiting'
p7040
I5402
sS'capital'
p7041
I887
sS'cozy'
p7042
I6668
sS'kangaroo'
p7043
I6671
sS'pushing'
p7044
I6672
sS'indicator'
p7045
I3710
sS'oars'
p7046
I6678
sS'sexy'
p7047
I6681
sS'cyclist'
p7048
I6682
sS'metro'
p7049
I6686
sS'adjusts'
p7050
I3269
sS'shades'
p7051
I6689
sS'leaving'
p7052
I6690
sS'engine'
p7053
I6691
sS'submerged'
p7054
I6693
sS'shaded'
p7055
I5647
sS'shovel'
p7056
I6697
sS'apple'
p7057
I6698
sS'duct'
p7058
I6700
sS'motor'
p7059
I6707
sS'duck'
p7060
I6708
sS'fed'
p7061
I1141
sS'from'
p7062
I6714
sS'usb'
p7063
I2743
sS'consumption'
p7064
I2747
sS'&'
I1214
sS'rackett'
p7065
I6719
sS'frog'
p7066
I2766
sS'few'
p7067
I6722
sS'depicted'
p7068
I6723
sS'sort'
p7069
I6729
sS'parliament'
p7070
I6730
sS'porch'
p7071
I6732
sS'musician'
p7072
I5526
sS'parrots'
p7073
I6738
sS'rabbit'
p7074
I6739
sS'women'
p7075
I6743
sS'wtih'
p7076
I6745
sS'duster'
p7077
I687
sS'getting'
p7078
I7367
sS'dusted'
p7079
I2227
sS'napkins'
p7080
I3204
sS'perched'
p7081
I6757
sS'posing'
p7082
I7120
sS'spilled'
p7083
I7370
sS'performed'
p7084
I6761
sS'patrol'
p7085
I6765
sS'tar'
p7086
I3001
sS'pad'
p7087
I6116
sS'parasailers'
p7088
I3012
sS'dripping'
p7089
I6770
sS'tag'
p7090
I3034
sS'something'
p7091
I6773
sS'tab'
p7092
I6774
sS'tan'
p7093
I6776
sS'onions'
p7094
I3801
sS'united'
p7095
I4838
sS'sit'
p7096
I4892
sS'six'
p7097
I6784
sS'sidewalks'
p7098
I6785
sS'struggles'
p7099
I6786
sS'instead'
p7100
I6789
sS'toddler'
p7101
I6791
sS'sin'
p7102
I6792
sS'typewriter'
p7103
I6608
sS'cupboard'
p7104
I6795
sS'attend'
p7105
I6796
sS'masks'
p7106
I1663
sS'tack'
p7107
I6801
sS'wrist'
p7108
I6802
sS'ethnic'
p7109
I3227
sS'faucets'
p7110
I1522
sS'sculptures'
p7111
I6805
sS'light'
p7112
I6806
sS'straps'
p7113
I6807
sS'scrubs'
p7114
I6812
sS'crawling'
p7115
I6813
sS'necklace'
p7116
I3077
sS'rusted'
p7117
I6818
sS'looks'
p7118
I4521
sS'underwater'
p7119
I3428
sS'grafitti'
p7120
I3432
sS'inlet'
p7121
I6829
sS'ships'
p7122
I6833
sS'choose'
p7123
I3472
sS'inspecting'
p7124
I6374
sS'orange'
p7125
I6837
sS'covered'
p7126
I4289
sS'holiday'
p7127
I6839
sS'crowds'
p7128
I6840
sS'magnet'
p7129
I6841
sS'crash'
p7130
I6842
sS'blackberries'
p7131
I6844
sS'mote'
p7132
I5577
sS'flour'
p7133
I3526
sS'material'
p7134
I806
sS'barbeque'
p7135
I6848
sS'oranges'
p7136
I6849
sS'flea'
p7137
I3570
sS'articles'
p7138
I2363
sS'easel'
p7139
I6859
sS'clippings'
p7140
I6860
sS'sleeve'
p7141
I6861
sS'tram'
p7142
I6862
sS'feast'
p7143
I6864
sS'trimmed'
p7144
I6865
sS'weather'
p7145
I6867
sS'blacktop'
p7146
I6868
sS'bills'
p7147
I3664
sS'tray'
p7148
I3667
sS'florets'
p7149
I6034
sS'related'
p7150
I6877
sS'sectional'
p7151
I5386
sS'our'
p7152
I6883
sS'shearing'
p7153
I6885
sS'out'
p7154
I6887
sS'crashes'
p7155
I6888
sS'parasailing'
p7156
I3788
sS'herded'
p7157
I6893
sS'vcr'
p7158
I6894
sS'grits'
p7159
I3820
sS'herder'
p7160
I6897
sS'attentively'
p7161
I3839
sS'ponies'
p7162
I6900
sS'hut'
p7163
I6902
sS'pours'
p7164
I6905
sS'utensil'
p7165
I6906
sS'ipod'
p7166
I1868
sS'york'
p7167
I3912
sS'dumpster'
p7168
I6914
sS'repairing'
p7169
I6918
sS'river'
p7170
I6031
sS'organic'
p7171
I6920
sS'g'
I6922
sS'conversation'
p7172
I3979
sS'manicured'
p7173
I6931
sS'biting'
p7174
I6932
sS'toasters'
p7175
I6933
sS'bouquet'
p7176
I6936
sS'umbrellas'
p7177
I6942
sS'destinations'
p7178
I6943
sS'unknown'
p7179
I5980
sS'accent'
p7180
I1798
sS'renovation'
p7181
I6953
sS'potty'
p7182
I4155
sS'dismantled'
p7183
I1771
sS'photoshopped'
p7184
I698
sS'lufthansa'
p7185
I6962
sS'shell'
p7186
I6963
sS'shelf'
p7187
I6964
sS'shallow'
p7188
I4234
sS'motorcycle'
p7189
I6966
sS'dreadlocks'
p7190
I6967
sS'slides'
p7191
I6968
sS'slider'
p7192
I6969
sS'reflecting'
p7193
I6970
sS'mules'
p7194
I6971
sS'sculpture'
p7195
I6984
sS'clip'
p7196
I4384
sS'fowl'
p7197
I6989
sS'teenagers'
p7198
I6991
sS'corona'
p7199
I4968
sS'faux'
p7200
I4438
sS'linked'
p7201
I4450
sS'angle'
p7202
I4468
sS'bagel'
p7203
I7006
sS'which'
p7204
I7008
sS'vegetation'
p7205
I1172
sS'patchy'
p7206
I7015
sS'pretzels'
p7207
I7016
sS'centre'
p7208
I4562
sS'who'
p7209
I660
sS'why'
p7210
I902
sS'statute'
p7211
I34
sS'evergreens'
p7212
I50
sS'halved'
p7213
I7029
sS'skying'
p7214
I7030
sS'pipe'
p7215
I7033
sS'hi'
p7216
I7415
sS'balding'
p7217
I7042
sS'please'
p7218
I7043
sS'burners'
p7219
I4759
sS'artfully'
p7220
I7047
sS'seaweed'
p7221
I4792
sS'superimposed'
p7222
I7051
sS'chicken'
p7223
I5816
sS'filthy'
p7224
I7054
sS'pleased'
p7225
I7055
sS'filmed'
p7226
I6138
sS'mugs'
p7227
I4825
sS'clutching'
p7228
I7061
sS'combs'
p7229
I7062
sS'eat'
p7230
I7420
sS'surroundings'
p7231
I7065
sS'sunflowers'
p7232
I7067
sS'combo'
p7233
I7068
sS'piano'
p7234
I4894
sS'local'
p7235
I1769
sS'cube'
p7236
I7074
sS'watching'
p7237
I7075
sS'payphone'
p7238
I7081
sS'ones'
p7239
I4969
sS'cubs'
p7240
I7083
sS'words'
p7241
I7084
sS'coordinating'
p7242
I7085
sS'chips'
p7243
I7088
sS'burned'
p7244
I7089
sS'married'
p7245
I3832
sS'futuristic'
p7246
I7100
sS'view'
p7247
I5093
sS'unison'
p7248
I1830
sS'europe'
p7249
I5122
sS'workbench'
p7250
I7104
sS'turbulent'
p7251
I965
sS'artsy'
p7252
I7109
sS'violet'
p7253
I7113
sS'barrels'
p7254
I5962
sS'sparsely'
p7255
I7461
sS'closer'
p7256
I7116
sS'still'
p7257
I7117
sS'gliders'
p7258
I7118
sS'closet'
p7259
I7119
sS'meatballs'
p7260
I5225
sS'identification'
p7261
I7126
sS'closed'
p7262
I7127
sS'crude'
p7263
I7128
sS'limit'
p7264
I7432
sS'pants'
p7265
I5269
sS'opening'
p7266
I5288
sS'joy'
p7267
I7134
sS'beverages'
p7268
I7136
sS'huts'
p7269
I7137
sS'job'
p7270
I7139
sS'ottoman'
p7271
I7052
sS'joe'
p7272
I7140
sS'stucco'
p7273
I7143
sS'redheaded'
p7274
I1893
sS'tiers'
p7275
I5356
sS'grain'
p7276
I7151
sS'canopy'
p7277
I7152
sS'grounds'
p7278
I7154
sS'wall'
p7279
I7157
sS'walk'
p7280
I7159
sS'packaging'
p7281
I7160
sS'table'
p7282
I7162
sS'trays'
p7283
I7163
sS'motorbike'
p7284
I7164
sS'decent'
p7285
I7166
sS'bbq'
p7286
I7173
sS'artisan'
p7287
I7174
sS'penny'
p7288
I7441
sS'painted'
p7289
I7180
sS'kisses'
p7290
I7442
sS'tap'
p7291
I7182
sS'dressers'
p7292
I7188
sS'unpeeled'
p7293
I7189
sS'present'
p7294
I7195
sS'abandoned'
p7295
I7197
sS'vanilla'
p7296
I7198
sS'choices'
p7297
I7199
sS'will'
p7298
I4144
sS'hovering'
p7299
I5509
sS'wild'
p7300
I7203
sS'cutter'
p7301
I7204
sS'layer'
p7302
I7206
sS'motif'
p7303
I4379
sS'rooster'
p7304
I1248
sS'bystanders'
p7305
I7211
sS'gothic'
p7306
I5844
sS'dual'
p7307
I5849
sS'ave'
p7308
I7214
sS'perhaps'
p7309
I7218
sS'vintage'
p7310
I7219
sS'headlight'
p7311
I7221
sS'cross'
p7312
I5916
sS'member'
p7313
I7224
sS'largest'
p7314
I7228
sS'units'
p7315
I2814
sS'gets'
p7316
I7231
sS'tomatoes'
p7317
I7232
sS'difficult'
p7318
I7233
sS'cellphones'
p7319
I7234
sS'coaches'
p7320
I7239
sS'student'
p7321
I7240
sS'pedal'
p7322
I7242
sS'whale'
p7323
I7243
sS'lobby'
p7324
I6051
sS'warming'
p7325
I7245
sS'gutter'
p7326
I7246
sS'plowed'
p7327
I7156
sS'contest'
p7328
I7452
sS'unpacked'
p7329
I7252
sS'fighting'
p7330
I7253
sS'scissor'
p7331
I7255
sS'spectator'
p7332
I7258
sS'english'
p7333
I7259
sS'bandanna'
p7334
I6134
sS'bending'
p7335
I1418
sS'rocket'
p7336
I7265
sS'heavily'
p7337
I6153
sS'batteries'
p7338
I7269
sS'fishing'
p7339
I6189
sS'toilets'
p7340
I7274
sS'rapid'
p7341
I7275
sS'console'
p7342
I7276
sS'supply'
p7343
I7277
sS'dinning'
p7344
I6257
sS'hall'
p7345
I7280
sS'shutters'
p7346
I7281
sS'other'
p7347
I7457
sS'attractive'
p7348
I7284
sS'jars'
p7349
I6289
sS'ski'
p7350
I6298
sS'identical'
p7351
I6311
sS'branch'
p7352
I7291
sS'protesters'
p7353
I4480
sS'know'
p7354
I7297
sS'facial'
p7355
I230
sS'catchers'
p7356
I6369
sS'press'
p7357
I6372
sS'doughnut'
p7358
I7301
sS'loses'
p7359
I7310
sS'because'
p7360
I7319
sS'shabby'
p7361
I7321
sS'sequence'
p7362
I7322
sS'mattresses'
p7363
I7323
sS'scared'
p7364
I7324
sS'church'
p7365
I7325
sS'searching'
p7366
I7326
sS'clydesdale'
p7367
I7328
sS'platforms'
p7368
I7329
sS'growth'
p7369
I6519
sS'twirling'
p7370
I5853
sS'empire'
p7371
I7334
sS'meatloaf'
p7372
I7335
sS'leaf'
p7373
I6532
sS'lead'
p7374
I7339
sS'lean'
p7375
I5239
sS'markers'
p7376
I3239
sS'leap'
p7377
I6602
sS'earrings'
p7378
I7347
sS'ripped'
p7379
I7349
sS'conveyer'
p7380
I6651
sS'dangling'
p7381
I7353
sS'mitt'
p7382
I7355
sS'shavings'
p7383
I7357
sS'pasta'
p7384
I7358
sS'fluorescent'
p7385
I4301
sS'paste'
p7386
I7360
sS'pike'
p7387
I7363
sS'rare'
p7388
I7364
sS'carried'
p7389
I4122
sS'extension'
p7390
I7366
sS'saddle'
p7391
I6751
sS'column'
p7392
I7368
sS'haired'
p7393
I7369
sS'biscuit'
p7394
I6760
sS'tiling'
p7395
I6687
sS'shipping'
p7396
I7372
sS'carries'
p7397
I4711
sS'carrier'
p7398
I7374
sS'sweat'
p7399
I7125
sS'crusted'
p7400
I6720
sS'owl'
p7401
I7381
sS'own'
p7402
I4600
sS'polished'
p7403
I7383
sS'wilderness'
p7404
I7384
sS'travelers'
p7405
I7386
sS'tailgate'
p7406
I7469
sS'headphone'
p7407
I7389
sS'dvd'
p7408
I6574
sS'brush'
p7409
I7392
sS'birdhouse'
p7410
I7394
sS'rowboat'
p7411
I7396
sS'van'
p7412
I2200
sS'spiral'
p7413
I7401
sS'groomed'
p7414
I7402
sS'continental'
p7415
I7403
sS'powdered'
p7416
I7405
sS'cliff'
p7417
I7473
sS'beard'
p7418
I7408
sS'lookign'
p7419
I1629
sS'catsup'
p7420
I7411
sS'automated'
p7421
I7417
sS'made'
p7422
I7422
sS'hitter'
p7423
I7424
sS'whether'
p7424
I7426
sS'protesting'
p7425
I7427
sS'record'
p7426
I7429
sS'below'
p7427
I2951
sS'cake'
p7428
I457
sS'stirring'
p7429
I7436
sS'maroon'
p7430
I7443
sS'boardwalk'
p7431
I7446
sS'sheered'
p7432
I7202
sS'trotting'
p7433
I7449
sS'trailing'
p7434
I1962
sS'incredible'
p7435
I6312
sS'boot'
p7436
I7454
sS'waterskiing'
p7437
I7272
sS'curtained'
p7438
I1239
sS'book'
p7439
I7282
sS'boom'
p7440
I4631
sS'sick'
p7441
I2725
sS'sloping'
p7442
I7460
sS'junk'
p7443
I1012
sS'kinds'
p7444
I3448
sS'shredded'
p7445
I7463
sS'mulch'
p7446
I7464
sS'sandwhich'
p7447
I3613
sS'upwards'
p7448
I6151
sS'rotting'
p7449
I7476
sS'races'
p7450
I7478
s.